(dp0
S'season'
p1
I2017
sS'games'
p2
(lp3
(dp4
S'date'
p5
VWednesday, October 12, 2016
p6
sS'shootout'
p7
(dp8
S'TOR'
p9
I0
sS'OTT'
p10
I0
ssS'score'
p11
(dp12
g9
(lp13
I1
aI1
aI2
aI2
asg10
(lp14
I1
aI1
aI2
aI3
aI4
assS'number'
p15
I1
sS'teams'
p16
(lp17
g10
ag9
asa(dp18
g5
VWednesday, October 12, 2016
p19
sg7
(dp20
S'STL'
p21
I0
sS'CHI'
p22
I0
ssg11
(dp23
g21
(lp24
I2
aI2
aI3
aI3
aI3
asg22
(lp25
I1
aI2
assg15
I2
sg16
(lp26
g22
ag21
asa(dp27
g5
VWednesday, October 12, 2016
p28
sg7
(dp29
S'CGY'
p30
I0
sS'EDM'
p31
I0
ssg11
(dp32
g30
(lp33
I1
aI2
aI2
aI3
asg31
(lp34
I1
aI1
aI1
aI2
aI2
aI3
aI3
assg15
I3
sg16
(lp35
g31
ag30
asa(dp36
g5
VWednesday, October 12, 2016
p37
sg7
(dp38
S'SJ'
p39
I0
sS'LA'
p40
I0
ssg11
(dp41
g39
(lp42
I1
aI3
asg40
(lp43
I1
assg15
I4
sg16
(lp44
g39
ag40
asa(dp45
g5
VThursday, October 13, 2016
p46
sg7
(dp47
S'BUF'
p48
I0
sS'MTL'
p49
I0
ssg11
(dp50
g48
(lp51
I3
asg49
(lp52
I1
aI2
aI3
aI3
assg15
I5
sg16
(lp53
g48
ag49
asa(dp54
g5
VThursday, October 13, 2016
p55
sg7
(dp56
S'NYR'
p57
I0
sS'NYI'
p58
I0
ssg11
(dp59
g57
(lp60
I1
aI2
aI3
aI3
aI3
asg58
(lp61
I3
aI3
aI3
assg15
I6
sg16
(lp62
g57
ag58
asa(dp63
g5
VThursday, October 13, 2016
p64
sg7
(dp65
S'WSH'
p66
I2
sS'PIT'
p67
I3
ssg11
(dp68
g66
(lp69
I1
aI3
asg67
(lp70
I2
aI2
assg15
I7
sg16
(lp71
g67
ag66
asa(dp72
g5
VThursday, October 13, 2016
p73
sg7
(dp74
S'CBJ'
p75
I0
sS'BOS'
p76
I0
ssg11
(dp77
g75
(lp78
I1
aI1
aI2
asg76
(lp79
I2
aI2
aI2
aI3
aI3
aI3
assg15
I8
sg16
(lp80
g75
ag76
asa(dp81
g5
VThursday, October 13, 2016
p82
sg7
(dp83
S'TB'
p84
I0
sS'DET'
p85
I0
ssg11
(dp86
g84
(lp87
I2
aI2
aI3
aI3
aI3
aI3
asg85
(lp88
I1
aI1
aI2
aI3
assg15
I9
sg16
(lp89
g84
ag85
asa(dp90
g5
VThursday, October 13, 2016
p91
sg7
(dp92
S'FLA'
p93
I0
sS'NJ'
p94
I0
ssg11
(dp95
g93
(lp96
I1
aI4
asg94
(lp97
I1
assg15
I10
sg16
(lp98
g93
ag94
asa(dp99
g5
VThursday, October 13, 2016
p100
sg7
(dp101
g21
I0
sS'MIN'
p102
I0
ssg11
(dp103
g21
(lp104
I1
aI2
aI3
asg102
(lp105
I2
aI3
assg15
I11
sg16
(lp106
g21
ag102
asa(dp107
g5
VThursday, October 13, 2016
p108
sg7
(dp109
S'CAR'
p110
I0
sS'WPG'
p111
I0
ssg11
(dp112
g110
(lp113
I1
aI2
aI2
aI3
asg111
(lp114
I1
aI3
aI3
aI3
aI4
assg15
I12
sg16
(lp115
g111
ag110
asa(dp116
g5
VThursday, October 13, 2016
p117
sg7
(dp118
S'DAL'
p119
I0
sS'ANA'
p120
I0
ssg11
(dp121
g119
(lp122
I1
aI2
aI3
aI3
asg120
(lp123
I1
aI3
assg15
I13
sg16
(lp124
g119
ag120
asa(dp125
g5
VFriday, October 14, 2016
p126
sg7
(dp127
S'NSH'
p128
I0
sg22
I0
ssg11
(dp129
g128
(lp130
I1
aI1
aI2
asg22
(lp131
I1
aI1
assg15
I14
sg16
(lp132
g128
ag22
asa(dp133
g5
VFriday, October 14, 2016
p134
sg7
(dp135
g30
I0
sg31
I0
ssg11
(dp136
g30
(lp137
I1
aI1
aI3
asg31
(lp138
I1
aI2
aI3
aI3
aI3
assg15
I15
sg16
(lp139
g30
ag31
asa(dp140
g5
VFriday, October 14, 2016
p141
sg7
(dp142
S'PHI'
p143
I0
sg40
I0
ssg11
(dp144
g143
(lp145
I2
aI2
aI2
aI2
asg40
(lp146
I2
aI3
assg15
I16
sg16
(lp147
g40
ag143
asa(dp148
g5
VSaturday, October 15, 2016
p149
sg7
(dp150
g9
I0
sg76
I0
ssg11
(dp151
g9
(lp152
I1
aI1
aI1
aI3
asg76
(lp153
I1
assg15
I17
sg16
(lp154
g9
ag76
asa(dp155
g5
VSaturday, October 15, 2016
p156
sg7
(dp157
g10
I2
sg49
I1
ssg11
(dp158
g10
(lp159
I1
aI1
aI3
asg49
(lp160
I2
aI3
aI3
assg15
I18
sg16
(lp161
g10
ag49
asa(dp162
g5
VSaturday, October 15, 2016
p163
sg7
(dp164
g94
I0
sg84
I0
ssg11
(dp165
g94
(lp166
I1
aI1
asg84
(lp167
I2
aI2
aI3
assg15
I19
sg16
(lp168
g84
ag94
asa(dp169
g5
VSaturday, October 15, 2016
p170
sg7
(dp171
g93
I0
sg85
I0
ssg11
(dp172
g93
(lp173
I1
aI1
aI3
aI3
asg85
(lp174
I1
assg15
I20
sg16
(lp175
g93
ag85
asa(dp176
g5
VSaturday, October 15, 2016
p177
sg7
(dp178
g67
I0
sg120
I0
ssg11
(dp179
g67
(lp180
I1
aI2
aI2
asg120
(lp181
I1
aI2
assg15
I21
sg16
(lp182
g67
ag120
asa(dp183
g5
VSaturday, October 15, 2016
p184
sg7
(dp185
g66
I0
sg58
I0
ssg11
(dp186
g66
(lp187
I1
aI2
asg58
(lp188
I1
assg15
I22
sg16
(lp189
g66
ag58
asa(dp190
g5
VSaturday, October 15, 2016
p191
sg7
(dp192
g75
I0
sg39
I0
ssg11
(dp193
g75
(lp194
I3
aI3
asg39
(lp195
I1
aI1
aI3
assg15
I23
sg16
(lp196
g75
ag39
asa(dp197
g5
VSaturday, October 15, 2016
p198
sg7
(dp199
g111
I0
sg102
I0
ssg11
(dp200
g111
(lp201
I1
aI1
aI3
asg102
(lp202
I2
aI2
aI2
aI3
assg15
I24
sg16
(lp203
g102
ag111
asa(dp204
g5
VSaturday, October 15, 2016
p205
sg7
(dp206
g21
I0
sg57
I0
ssg11
(dp207
g21
(lp208
I1
aI1
aI2
asg57
(lp209
I1
aI2
assg15
I25
sg16
(lp210
g21
ag57
asa(dp211
g5
VSaturday, October 15, 2016
p212
sg7
(dp213
g128
I0
sg22
I0
ssg11
(dp214
g128
(lp215
I1
aI2
aI3
asg22
(lp216
I1
aI1
aI1
aI3
aI3
assg15
I26
sg16
(lp217
g22
ag128
asa(dp218
g5
VSaturday, October 15, 2016
p219
sg7
(dp220
g119
I0
sS'COL'
p221
I0
ssg11
(dp222
g119
(lp223
I1
aI1
aI2
aI2
aI3
asg221
(lp224
I1
aI1
aI2
aI2
aI2
aI3
assg15
I27
sg16
(lp225
g221
ag119
asa(dp226
g5
VSaturday, October 15, 2016
p227
sg7
(dp228
S'ARI'
p229
I0
sg143
I0
ssg11
(dp230
g229
(lp231
I1
aI1
aI2
aI4
asg143
(lp232
I1
aI2
aI3
assg15
I28
sg16
(lp233
g229
ag143
asa(dp234
g5
VSaturday, October 15, 2016
p235
sg7
(dp236
g30
I0
sS'VAN'
p237
I1
ssg11
(dp238
g30
(lp239
I1
asg237
(lp240
I3
assg15
I29
sg16
(lp241
g237
ag30
asa(dp242
g5
VSunday, October 16, 2016
p243
sg7
(dp244
g58
I0
sg120
I0
ssg11
(dp245
g58
(lp246
I1
aI3
aI4
asg120
(lp247
I3
aI3
assg15
I30
sg16
(lp248
g58
ag120
asa(dp249
g5
VSunday, October 16, 2016
p250
sg7
(dp251
g48
I0
sg31
I0
ssg11
(dp252
g48
(lp253
I1
aI1
aI2
aI2
aI3
aI3
asg31
(lp254
I1
aI1
assg15
I31
sg16
(lp255
g31
ag48
asa(dp256
g5
VSunday, October 16, 2016
p257
sg7
(dp258
g110
I0
sg237
I0
ssg11
(dp259
g110
(lp260
I1
aI1
aI2
asg237
(lp261
I2
aI3
aI3
aI4
assg15
I32
sg16
(lp262
g237
ag110
asa(dp263
g5
VMonday, October 17, 2016
p264
sg7
(dp265
g57
I0
sg39
I0
ssg11
(dp266
g57
(lp267
I1
aI2
aI2
aI3
aI3
aI3
aI3
asg39
(lp268
I1
aI3
aI3
aI3
assg15
I33
sg16
(lp269
g57
ag39
asa(dp270
g5
VMonday, October 17, 2016
p271
sg7
(dp272
g67
I0
sg221
I0
ssg11
(dp273
g67
(lp274
I1
aI1
aI3
asg221
(lp275
I1
aI1
aI3
aI4
assg15
I34
sg16
(lp276
g67
ag221
asa(dp277
g5
VMonday, October 17, 2016
p278
sg7
(dp279
g85
I0
sg10
I0
ssg11
(dp280
g85
(lp281
I1
aI1
aI1
aI3
aI3
asg10
(lp282
I2
assg15
I35
sg16
(lp283
g85
ag10
asa(dp284
g5
VMonday, October 17, 2016
p285
sg7
(dp286
g111
I0
sg76
I0
ssg11
(dp287
g111
(lp288
I1
asg76
(lp289
I1
aI2
aI3
aI3
assg15
I36
sg16
(lp290
g111
ag76
asa(dp291
g5
VTuesday, October 18, 2016
p292
sg7
(dp293
g94
I0
sg120
I0
ssg11
(dp294
g94
(lp295
I2
aI2
asg120
(lp296
I1
assg15
I37
sg16
(lp297
g94
ag120
asa(dp298
g5
VTuesday, October 18, 2016
p299
sg7
(dp300
g39
I0
sg58
I0
ssg11
(dp301
g39
(lp302
I1
aI2
aI3
asg58
(lp303
I2
aI2
assg15
I38
sg16
(lp304
g58
ag39
asa(dp305
g5
VTuesday, October 18, 2016
p306
sg7
(dp307
g66
I0
sg221
I0
ssg11
(dp308
g66
(lp309
I1
aI2
aI3
asg221
(lp310
ssg15
I39
sg16
(lp311
g66
ag221
asa(dp312
g5
VTuesday, October 18, 2016
p313
sg7
(dp314
g67
I0
sg49
I0
ssg11
(dp315
g67
(lp316
sg49
(lp317
I1
aI2
aI3
aI3
assg15
I40
sg16
(lp318
g49
ag67
asa(dp319
g5
VTuesday, October 18, 2016
p320
sg7
(dp321
g229
I0
sg10
I0
ssg11
(dp322
g229
(lp323
I1
aI3
aI3
aI3
asg10
(lp324
I1
aI1
aI2
aI3
aI3
aI3
aI3
assg15
I41
sg16
(lp325
g10
ag229
asa(dp326
g5
VTuesday, October 18, 2016
p327
sg7
(dp328
g93
I1
sg84
I2
ssg11
(dp329
g93
(lp330
I2
aI3
aI3
asg84
(lp331
I2
aI2
aI3
assg15
I42
sg16
(lp332
g84
ag93
asa(dp333
g5
VTuesday, October 18, 2016
p334
sg7
(dp335
g128
I0
sg119
I0
ssg11
(dp336
g128
(lp337
I2
asg119
(lp338
I2
aI3
assg15
I43
sg16
(lp339
g128
ag119
asa(dp340
g5
VTuesday, October 18, 2016
p341
sg7
(dp342
g102
I0
sg40
I0
ssg11
(dp343
g102
(lp344
I1
aI1
aI2
aI2
aI2
aI3
asg40
(lp345
I1
aI3
aI3
assg15
I44
sg16
(lp346
g102
ag40
asa(dp347
g5
VTuesday, October 18, 2016
p348
sg7
(dp349
g22
I0
sg143
I0
ssg11
(dp350
g22
(lp351
I1
aI1
aI1
aI2
aI3
aI3
aI3
asg143
(lp352
I2
aI3
aI3
aI3
assg15
I45
sg16
(lp353
g22
ag143
asa(dp354
g5
VTuesday, October 18, 2016
p355
sg7
(dp356
g30
I0
sg48
I0
ssg11
(dp357
g30
(lp358
I1
aI3
aI3
aI4
asg48
(lp359
I1
aI2
aI3
assg15
I46
sg16
(lp360
g30
ag48
asa(dp361
g5
VTuesday, October 18, 2016
p362
sg7
(dp363
g110
I0
sg31
I0
ssg11
(dp364
g110
(lp365
I3
aI3
asg31
(lp366
I1
aI1
aI2
assg15
I47
sg16
(lp367
g31
ag110
asa(dp368
g5
VTuesday, October 18, 2016
p369
sg7
(dp370
g21
I0
sg237
I0
ssg11
(dp371
g21
(lp372
I2
asg237
(lp373
I3
aI4
assg15
I48
sg16
(lp374
g237
ag21
asa(dp375
g5
VWednesday, October 19, 2016
p376
sg7
(dp377
g57
I0
sg85
I0
ssg11
(dp378
g57
(lp379
I1
asg85
(lp380
I2
aI3
assg15
I49
sg16
(lp381
g57
ag85
asa(dp382
g5
VWednesday, October 19, 2016
p383
sg7
(dp384
g9
I0
sg111
I0
ssg11
(dp385
g9
(lp386
I1
aI1
aI2
aI2
asg111
(lp387
I2
aI3
aI3
aI3
aI4
assg15
I50
sg16
(lp388
g111
ag9
asa(dp389
g5
VThursday, October 20, 2016
p390
sg7
(dp391
g94
I0
sg76
I0
ssg11
(dp392
g94
(lp393
I3
asg76
(lp394
I3
aI3
assg15
I51
sg16
(lp395
g76
ag94
asa(dp396
g5
VThursday, October 20, 2016
p397
sg7
(dp398
g143
I0
sg120
I0
ssg11
(dp399
g143
(lp400
I2
aI2
asg120
(lp401
I1
aI2
aI3
assg15
I52
sg16
(lp402
g143
ag120
asa(dp403
g5
VThursday, October 20, 2016
p404
sg7
(dp405
g39
I0
sg67
I0
ssg11
(dp406
g39
(lp407
I2
aI2
asg67
(lp408
I3
aI3
aI3
assg15
I53
sg16
(lp409
g67
ag39
asa(dp410
g5
VThursday, October 20, 2016
p411
sg7
(dp412
g229
I0
sg49
I0
ssg11
(dp413
g229
(lp414
I2
aI2
asg49
(lp415
I1
aI2
aI2
aI2
aI3
assg15
I54
sg16
(lp416
g49
ag229
asa(dp417
g5
VThursday, October 20, 2016
p418
sg7
(dp419
g84
I0
sg221
I0
ssg11
(dp420
g84
(lp421
sg221
(lp422
I1
aI2
aI3
aI3
assg15
I55
sg16
(lp423
g84
ag221
asa(dp424
g5
VThursday, October 20, 2016
p425
sg7
(dp426
g93
I0
sg66
I0
ssg11
(dp427
g93
(lp428
I1
aI2
asg66
(lp429
I1
aI1
aI3
aI3
assg15
I56
sg16
(lp430
g93
ag66
asa(dp431
g5
VThursday, October 20, 2016
p432
sg7
(dp433
g9
I0
sg102
I0
ssg11
(dp434
g9
(lp435
I2
aI2
asg102
(lp436
I2
aI3
aI3
assg15
I57
sg16
(lp437
g102
ag9
asa(dp438
g5
VThursday, October 20, 2016
p439
sg7
(dp440
g119
I0
sg40
I0
ssg11
(dp441
g119
(lp442
I1
aI2
aI3
asg40
(lp443
I1
aI2
aI2
aI4
assg15
I58
sg16
(lp444
g119
ag40
asa(dp445
g5
VThursday, October 20, 2016
p446
sg7
(dp447
g30
I0
sg110
I0
ssg11
(dp448
g30
(lp449
I2
aI3
asg110
(lp450
I1
aI1
aI2
aI3
assg15
I59
sg16
(lp451
g30
ag110
asa(dp452
g5
VThursday, October 20, 2016
p453
sg7
(dp454
g21
I0
sg31
I0
ssg11
(dp455
g21
(lp456
I2
asg31
(lp457
I2
aI3
aI3
assg15
I60
sg16
(lp458
g31
ag21
asa(dp459
g5
VThursday, October 20, 2016
p460
sg7
(dp461
g237
I0
sg48
I0
ssg11
(dp462
g237
(lp463
I2
aI3
asg48
(lp464
I3
assg15
I61
sg16
(lp465
g237
ag48
asa(dp466
g5
VFriday, October 21, 2016
p467
sg7
(dp468
g229
I0
sg58
I0
ssg11
(dp469
g229
(lp470
I1
aI1
asg58
(lp471
I1
aI1
aI3
assg15
I62
sg16
(lp472
g58
ag229
asa(dp473
g5
VFriday, October 21, 2016
p474
sg7
(dp475
g75
I0
sg22
I0
ssg11
(dp476
g75
(lp477
I1
aI2
aI2
asg22
(lp478
I2
aI3
assg15
I63
sg16
(lp479
g75
ag22
asa(dp480
g5
VFriday, October 21, 2016
p481
sg7
(dp482
g128
I0
sg85
I0
ssg11
(dp483
g128
(lp484
I2
aI2
aI3
asg85
(lp485
I2
aI2
aI3
aI3
aI3
assg15
I64
sg16
(lp486
g85
ag128
asa(dp487
g5
VSaturday, October 22, 2016
p488
sg7
(dp489
g76
I0
sg49
I0
ssg11
(dp490
g76
(lp491
I3
aI3
asg49
(lp492
I2
aI2
aI3
aI3
assg15
I65
sg16
(lp493
g76
ag49
asa(dp494
g5
VSaturday, October 22, 2016
p495
sg7
(dp496
g10
I0
sg84
I0
ssg11
(dp497
g10
(lp498
I2
asg84
(lp499
I2
aI2
aI3
aI3
assg15
I66
sg16
(lp500
g10
ag84
asa(dp501
g5
VSaturday, October 22, 2016
p502
sg7
(dp503
g39
I0
sg85
I0
ssg11
(dp504
g39
(lp505
sg85
(lp506
I2
aI2
aI3
assg15
I67
sg16
(lp507
g85
ag39
asa(dp508
g5
VSaturday, October 22, 2016
p509
sg7
(dp510
g93
I0
sg221
I0
ssg11
(dp511
g93
(lp512
I2
aI2
aI3
aI3
aI3
asg221
(lp513
I1
aI3
assg15
I68
sg16
(lp514
g93
ag221
asa(dp515
g5
VSaturday, October 22, 2016
p516
sg7
(dp517
g94
I0
sg102
I0
ssg11
(dp518
g94
(lp519
I3
aI4
asg102
(lp520
I2
assg15
I69
sg16
(lp521
g94
ag102
asa(dp522
g5
VSaturday, October 22, 2016
p523
sg7
(dp524
g110
I0
sg143
I0
ssg11
(dp525
g110
(lp526
I2
aI2
aI2
asg143
(lp527
I2
aI2
aI2
aI2
aI3
aI3
assg15
I70
sg16
(lp528
g143
ag110
asa(dp529
g5
VSaturday, October 22, 2016
p530
sg7
(dp531
g57
I0
sg66
I0
ssg11
(dp532
g57
(lp533
I2
aI2
aI2
aI3
asg66
(lp534
I1
aI1
assg15
I71
sg16
(lp535
g66
ag57
asa(dp536
g5
VSaturday, October 22, 2016
p537
sg7
(dp538
g9
I1
sg22
I2
ssg11
(dp539
g9
(lp540
I1
aI2
aI2
aI3
asg22
(lp541
I1
aI2
aI3
aI3
assg15
I72
sg16
(lp542
g22
ag9
asa(dp543
g5
VSaturday, October 22, 2016
p544
sg7
(dp545
g128
I0
sg67
I0
ssg11
(dp546
g128
(lp547
I1
aI2
aI2
aI2
aI2
asg67
(lp548
I1
assg15
I73
sg16
(lp549
g128
ag67
asa(dp550
g5
VSaturday, October 22, 2016
p551
sg7
(dp552
g119
I0
sg75
I0
ssg11
(dp553
g119
(lp554
sg75
(lp555
I2
aI3
aI3
assg15
I74
sg16
(lp556
g119
ag75
asa(dp557
g5
VSaturday, October 22, 2016
p558
sg7
(dp559
g30
I0
sg21
I0
ssg11
(dp560
g30
(lp561
I2
aI2
aI3
aI3
asg21
(lp562
I1
aI2
aI2
aI2
aI3
aI3
assg15
I75
sg16
(lp563
g30
ag21
asa(dp564
g5
VSaturday, October 22, 2016
p565
sg7
(dp566
g237
I0
sg40
I1
ssg11
(dp567
g237
(lp568
I2
aI2
aI3
asg40
(lp569
I1
aI1
aI2
assg15
I76
sg16
(lp570
g40
ag237
asa(dp571
g5
VSunday, October 23, 2016
p572
sg7
(dp573
g111
I0
sg31
I0
ssg11
(dp574
g111
(lp575
sg31
(lp576
I2
aI2
aI2
assg15
I77
sg16
(lp577
g111
ag31
asa(dp578
g5
VSunday, October 23, 2016
p579
sg7
(dp580
g58
I0
sg102
I0
ssg11
(dp581
g58
(lp582
I2
aI2
aI2
aI3
aI3
aI3
asg102
(lp583
I2
aI2
aI3
assg15
I78
sg16
(lp584
g58
ag102
asa(dp585
g5
VSunday, October 23, 2016
p586
sg7
(dp587
g57
I0
sg229
I0
ssg11
(dp588
g57
(lp589
I1
aI2
aI3
asg229
(lp590
I1
aI2
assg15
I79
sg16
(lp591
g57
ag229
asa(dp592
g5
VSunday, October 23, 2016
p593
sg7
(dp594
g237
I0
sg120
I0
ssg11
(dp595
g237
(lp596
I1
aI3
asg120
(lp597
I1
aI2
aI3
aI3
assg15
I80
sg16
(lp598
g120
ag237
asa(dp599
g5
VMonday, October 24, 2016
p600
sg7
(dp601
g143
I0
sg49
I0
ssg11
(dp602
g143
(lp603
I2
asg49
(lp604
I2
aI3
aI3
assg15
I81
sg16
(lp605
g49
ag143
asa(dp606
g5
VMonday, October 24, 2016
p607
sg7
(dp608
g30
I1
sg22
I0
ssg11
(dp609
g30
(lp610
I1
aI2
asg22
(lp611
I2
aI3
assg15
I82
sg16
(lp612
g22
ag30
asa(dp613
g5
VTuesday, October 25, 2016
p614
sg7
(dp615
g76
I0
sg102
I0
ssg11
(dp616
g76
(lp617
sg102
(lp618
I2
aI2
aI2
aI2
aI3
assg15
I83
sg16
(lp619
g76
ag102
asa(dp620
g5
VTuesday, October 25, 2016
p621
sg7
(dp622
g229
I0
sg94
I0
ssg11
(dp623
g229
(lp624
I1
aI3
aI3
asg94
(lp625
I1
aI2
aI2
aI3
aI3
assg15
I84
sg16
(lp626
g94
ag229
asa(dp627
g5
VTuesday, October 25, 2016
p628
sg7
(dp629
g143
I2
sg48
I0
ssg11
(dp630
g143
(lp631
I3
aI3
aI3
asg48
(lp632
I2
aI2
aI2
assg15
I85
sg16
(lp633
g143
ag48
asa(dp634
g5
VTuesday, October 25, 2016
p635
sg7
(dp636
g93
I0
sg67
I0
ssg11
(dp637
g93
(lp638
I1
aI2
asg67
(lp639
I2
aI3
aI3
assg15
I86
sg16
(lp640
g67
ag93
asa(dp641
g5
VTuesday, October 25, 2016
p642
sg7
(dp643
g9
I0
sg84
I0
ssg11
(dp644
g9
(lp645
I2
aI3
aI3
asg84
(lp646
I1
aI1
aI1
aI2
aI3
aI3
aI3
assg15
I87
sg16
(lp647
g9
ag84
asa(dp648
g5
VTuesday, October 25, 2016
p649
sg7
(dp650
g110
I0
sg85
I0
ssg11
(dp651
g110
(lp652
I2
aI2
asg85
(lp653
I1
aI1
aI1
aI2
assg15
I88
sg16
(lp654
g85
ag110
asa(dp655
g5
VTuesday, October 25, 2016
p656
sg7
(dp657
g21
I0
sg30
I0
ssg11
(dp658
g21
(lp659
I3
asg30
(lp660
I1
aI1
aI2
aI3
assg15
I89
sg16
(lp661
g21
ag30
asa(dp662
g5
VTuesday, October 25, 2016
p663
sg7
(dp664
g119
I0
sg111
I0
ssg11
(dp665
g119
(lp666
I1
aI2
aI3
asg111
(lp667
I2
aI3
assg15
I90
sg16
(lp668
g119
ag111
asa(dp669
g5
VTuesday, October 25, 2016
p670
sg7
(dp671
g237
I0
sg10
I0
ssg11
(dp672
g237
(lp673
sg10
(lp674
I1
aI3
aI3
assg15
I91
sg16
(lp675
g237
ag10
asa(dp676
g5
VTuesday, October 25, 2016
p677
sg7
(dp678
g75
I0
sg40
I0
ssg11
(dp679
g75
(lp680
I2
aI2
asg40
(lp681
I2
aI3
aI4
assg15
I92
sg16
(lp682
g40
ag75
asa(dp683
g5
VTuesday, October 25, 2016
p684
sg7
(dp685
g39
I0
sg120
I0
ssg11
(dp686
g39
(lp687
I1
aI4
asg120
(lp688
I2
assg15
I93
sg16
(lp689
g39
ag120
asa(dp690
g5
VWednesday, October 26, 2016
p691
sg7
(dp692
g58
I0
sg49
I0
ssg11
(dp693
g58
(lp694
I2
aI3
asg49
(lp695
I2
aI3
aI3
assg15
I94
sg16
(lp696
g58
ag49
asa(dp697
g5
VWednesday, October 26, 2016
p698
sg7
(dp699
g57
I0
sg76
I0
ssg11
(dp700
g57
(lp701
I2
aI2
aI2
aI3
aI3
asg76
(lp702
I1
aI1
assg15
I95
sg16
(lp703
g57
ag76
asa(dp704
g5
VWednesday, October 26, 2016
p705
sg7
(dp706
g66
I0
sg31
I0
ssg11
(dp707
g66
(lp708
I3
asg31
(lp709
I2
aI2
aI3
aI3
assg15
I96
sg16
(lp710
g31
ag66
asa(dp711
g5
VWednesday, October 26, 2016
p712
sg7
(dp713
g128
I0
sg120
I0
ssg11
(dp714
g128
(lp715
I3
asg120
(lp716
I1
aI2
aI2
aI2
aI2
aI2
assg15
I97
sg16
(lp717
g120
ag128
asa(dp718
g5
VThursday, October 27, 2016
p719
sg7
(dp720
g48
I0
sg102
I0
ssg11
(dp721
g48
(lp722
sg102
(lp723
I1
aI1
aI3
aI3
assg15
I98
sg16
(lp724
g48
ag102
asa(dp725
g5
VThursday, October 27, 2016
p726
sg7
(dp727
g229
I0
sg143
I0
ssg11
(dp728
g229
(lp729
I1
aI1
aI3
aI3
aI3
asg143
(lp730
I2
aI2
aI3
aI3
assg15
I99
sg16
(lp731
g143
ag229
asa(dp732
g5
VThursday, October 27, 2016
p733
sg7
(dp734
g58
I0
sg67
I0
ssg11
(dp735
g58
(lp736
I2
aI3
asg67
(lp737
I1
aI3
aI3
aI3
assg15
I100
sg16
(lp738
g67
ag58
asa(dp739
g5
VThursday, October 27, 2016
p740
sg7
(dp741
g9
I0
sg93
I0
ssg11
(dp742
g9
(lp743
I1
aI2
aI2
asg93
(lp744
I1
aI2
assg15
I101
sg16
(lp745
g9
ag93
asa(dp746
g5
VThursday, October 27, 2016
p747
sg7
(dp748
g84
I0
sg49
I0
ssg11
(dp749
g84
(lp750
I2
asg49
(lp751
I3
aI3
aI3
assg15
I102
sg16
(lp752
g49
ag84
asa(dp753
g5
VThursday, October 27, 2016
p754
sg7
(dp755
g21
I1
sg85
I2
ssg11
(dp756
g21
(lp757
I2
asg85
(lp758
I2
assg15
I103
sg16
(lp759
g21
ag85
asa(dp760
g5
VThursday, October 27, 2016
p761
sg7
(dp762
g119
I0
sg111
I0
ssg11
(dp763
g119
(lp764
I3
asg111
(lp765
I1
aI1
aI2
aI3
assg15
I104
sg16
(lp766
g111
ag119
asa(dp767
g5
VThursday, October 27, 2016
p768
sg7
(dp769
g128
I0
sg40
I0
ssg11
(dp770
g128
(lp771
I2
aI3
asg40
(lp772
I2
aI3
aI4
assg15
I105
sg16
(lp773
g40
ag128
asa(dp774
g5
VThursday, October 27, 2016
p775
sg7
(dp776
g75
I0
sg39
I0
ssg11
(dp777
g75
(lp778
I3
asg39
(lp779
I1
aI3
aI3
assg15
I106
sg16
(lp780
g39
ag75
asa(dp781
g5
VFriday, October 28, 2016
p782
sg7
(dp783
g22
I0
sg94
I0
ssg11
(dp784
g22
(lp785
I2
aI3
aI4
asg94
(lp786
I1
aI3
assg15
I107
sg16
(lp787
g94
ag22
asa(dp788
g5
VFriday, October 28, 2016
p789
sg7
(dp790
g57
I0
sg110
I0
ssg11
(dp791
g57
(lp792
I1
aI2
asg110
(lp793
I1
aI2
aI2
assg15
I108
sg16
(lp794
g110
ag57
asa(dp795
g5
VFriday, October 28, 2016
p796
sg7
(dp797
g111
I0
sg221
I0
ssg11
(dp798
g111
(lp799
I2
asg221
(lp800
ssg15
I109
sg16
(lp801
g221
ag111
asa(dp802
g5
VFriday, October 28, 2016
p803
sg7
(dp804
g30
I0
sg10
I0
ssg11
(dp805
g30
(lp806
I1
aI2
aI2
aI3
aI3
asg10
(lp807
I1
aI1
assg15
I110
sg16
(lp808
g30
ag10
asa(dp809
g5
VFriday, October 28, 2016
p810
sg7
(dp811
g237
I0
sg31
I0
ssg11
(dp812
g237
(lp813
sg31
(lp814
I2
aI3
assg15
I111
sg16
(lp815
g237
ag31
asa(dp816
g5
VFriday, October 28, 2016
p817
sg7
(dp818
g75
I0
sg120
I0
ssg11
(dp819
g75
(lp820
I1
aI1
aI1
aI1
asg120
(lp821
ssg15
I112
sg16
(lp822
g120
ag75
asa(dp823
g5
VSaturday, October 29, 2016
p824
sg7
(dp825
g93
I0
sg48
I0
ssg11
(dp826
g93
(lp827
sg48
(lp828
I1
aI2
aI3
assg15
I113
sg16
(lp829
g48
ag93
asa(dp830
g5
VSaturday, October 29, 2016
p831
sg7
(dp832
g9
I0
sg49
I0
ssg11
(dp833
g9
(lp834
I3
asg49
(lp835
I2
aI3
assg15
I114
sg16
(lp836
g49
ag9
asa(dp837
g5
VSaturday, October 29, 2016
p838
sg7
(dp839
g76
I0
sg85
I0
ssg11
(dp840
g76
(lp841
I2
asg85
(lp842
ssg15
I115
sg16
(lp843
g85
ag76
asa(dp844
g5
VSaturday, October 29, 2016
p845
sg7
(dp846
g94
I0
sg84
I0
ssg11
(dp847
g94
(lp848
I1
aI1
aI2
asg84
(lp849
I3
assg15
I116
sg16
(lp850
g94
ag84
asa(dp851
g5
VSaturday, October 29, 2016
p852
sg7
(dp853
g143
I0
sg67
I0
ssg11
(dp854
g143
(lp855
I1
aI1
aI2
aI2
asg67
(lp856
I1
aI1
aI1
aI2
aI3
assg15
I117
sg16
(lp857
g143
ag67
asa(dp858
g5
VSaturday, October 29, 2016
p859
sg7
(dp860
g21
I0
sg40
I0
ssg11
(dp861
g21
(lp862
I3
asg40
(lp863
ssg15
I118
sg16
(lp864
g21
ag40
asa(dp865
g5
VSaturday, October 29, 2016
p866
sg7
(dp867
g119
I0
sg102
I0
ssg11
(dp868
g119
(lp869
sg102
(lp870
I1
aI3
aI3
aI3
assg15
I119
sg16
(lp871
g102
ag119
asa(dp872
g5
VSaturday, October 29, 2016
p873
sg7
(dp874
g229
I0
sg221
I0
ssg11
(dp875
g229
(lp876
I1
aI3
asg221
(lp877
I2
aI3
aI3
assg15
I120
sg16
(lp878
g229
ag221
asa(dp879
g5
VSaturday, October 29, 2016
p880
sg7
(dp881
g66
I0
sg237
I0
ssg11
(dp882
g66
(lp883
I1
aI1
aI2
aI3
aI3
asg237
(lp884
I1
aI2
assg15
I121
sg16
(lp885
g237
ag66
asa(dp886
g5
VSaturday, October 29, 2016
p887
sg7
(dp888
g128
I0
sg39
I0
ssg11
(dp889
g128
(lp890
I2
asg39
(lp891
I1
aI2
aI2
aI3
assg15
I122
sg16
(lp892
g39
ag128
asa(dp893
g5
VSunday, October 30, 2016
p894
sg7
(dp895
g111
I0
sg48
I0
ssg11
(dp896
g111
(lp897
I3
asg48
(lp898
I1
aI1
aI2
assg15
I123
sg16
(lp899
g111
ag48
asa(dp900
g5
VSunday, October 30, 2016
p901
sg7
(dp902
g93
I0
sg85
I0
ssg11
(dp903
g93
(lp904
I1
aI1
aI1
aI2
aI2
asg85
(lp905
I2
aI3
assg15
I124
sg16
(lp906
g85
ag93
asa(dp907
g5
VSunday, October 30, 2016
p908
sg7
(dp909
g110
I0
sg143
I0
ssg11
(dp910
g110
(lp911
I2
aI2
aI2
asg143
(lp912
I1
aI2
aI2
aI3
assg15
I125
sg16
(lp913
g110
ag143
asa(dp914
g5
VSunday, October 30, 2016
p915
sg7
(dp916
g9
I0
sg58
I0
ssg11
(dp917
g9
(lp918
I3
asg58
(lp919
I1
aI1
aI3
aI3
aI3
assg15
I126
sg16
(lp920
g58
ag9
asa(dp921
g5
VSunday, October 30, 2016
p922
sg7
(dp923
g57
I0
sg84
I0
ssg11
(dp924
g57
(lp925
I2
aI2
aI2
aI2
aI3
aI3
asg84
(lp926
I3
assg15
I127
sg16
(lp927
g57
ag84
asa(dp928
g5
VSunday, October 30, 2016
p929
sg7
(dp930
g22
I0
sg40
I0
ssg11
(dp931
g22
(lp932
I1
aI2
aI3
asg40
(lp933
ssg15
I128
sg16
(lp934
g22
ag40
asa(dp935
g5
VSunday, October 30, 2016
p936
sg7
(dp937
g10
I0
sg31
I0
ssg11
(dp938
g10
(lp939
I2
aI3
asg31
(lp940
ssg15
I129
sg16
(lp941
g31
ag10
asa(dp942
g5
VSunday, October 30, 2016
p943
sg7
(dp944
g30
I0
sg66
I0
ssg11
(dp945
g30
(lp946
I1
asg66
(lp947
I1
aI1
aI3
assg15
I130
sg16
(lp948
g30
ag66
asa(dp949
g5
VTuesday, November 1, 2016
p950
sg7
(dp951
g58
I0
sg84
I0
ssg11
(dp952
g58
(lp953
I2
asg84
(lp954
I1
aI1
aI1
aI2
aI2
aI2
assg15
I131
sg16
(lp955
g58
ag84
asa(dp956
g5
VTuesday, November 1, 2016
p957
sg7
(dp958
g57
I0
sg21
I0
ssg11
(dp959
g57
(lp960
I1
aI1
aI2
aI2
aI2
asg21
(lp961
ssg15
I132
sg16
(lp962
g57
ag21
asa(dp963
g5
VTuesday, November 1, 2016
p964
sg7
(dp965
g75
I0
sg119
I0
ssg11
(dp966
g75
(lp967
I2
aI3
aI4
asg119
(lp968
I2
aI3
assg15
I133
sg16
(lp969
g75
ag119
asa(dp970
g5
VTuesday, November 1, 2016
p971
sg7
(dp972
g9
I0
sg31
I0
ssg11
(dp973
g9
(lp974
I1
aI2
aI4
asg31
(lp975
I1
aI3
assg15
I134
sg16
(lp976
g9
ag31
asa(dp977
g5
VTuesday, November 1, 2016
p978
sg7
(dp979
g110
I0
sg10
I0
ssg11
(dp980
g110
(lp981
I1
asg10
(lp982
I1
aI4
assg15
I135
sg16
(lp983
g10
ag110
asa(dp984
g5
VTuesday, November 1, 2016
p985
sg7
(dp986
g93
I0
sg76
I0
ssg11
(dp987
g93
(lp988
I3
asg76
(lp989
I1
aI2
assg15
I136
sg16
(lp990
g93
ag76
asa(dp991
g5
VTuesday, November 1, 2016
p992
sg7
(dp993
g48
I0
sg102
I0
ssg11
(dp994
g48
(lp995
I1
aI3
asg102
(lp996
I2
assg15
I137
sg16
(lp997
g102
ag48
asa(dp998
g5
VTuesday, November 1, 2016
p999
sg7
(dp1000
g66
I0
sg111
I0
ssg11
(dp1001
g66
(lp1002
I1
aI2
aI3
asg111
(lp1003
I3
aI3
assg15
I138
sg16
(lp1004
g111
ag66
asa(dp1005
g5
VTuesday, November 1, 2016
p1006
sg7
(dp1007
g30
I0
sg22
I0
ssg11
(dp1008
g30
(lp1009
I2
asg22
(lp1010
I1
aI3
aI3
aI3
aI3
assg15
I139
sg16
(lp1011
g22
ag30
asa(dp1012
g5
VTuesday, November 1, 2016
p1013
sg7
(dp1014
g128
I0
sg221
I0
ssg11
(dp1015
g128
(lp1016
I1
aI1
aI2
aI3
aI3
asg221
(lp1017
I1
assg15
I140
sg16
(lp1018
g221
ag128
asa(dp1019
g5
VTuesday, November 1, 2016
p1020
sg7
(dp1021
g229
I0
sg39
I0
ssg11
(dp1022
g229
(lp1023
I2
aI2
aI2
asg39
(lp1024
I1
aI3
assg15
I141
sg16
(lp1025
g229
ag39
asa(dp1026
g5
VTuesday, November 1, 2016
p1027
sg7
(dp1028
g120
I0
sg40
I0
ssg11
(dp1029
g120
(lp1030
I1
aI2
aI2
aI2
asg40
(lp1031
ssg15
I142
sg16
(lp1032
g40
ag120
asa(dp1033
g5
VWednesday, November 2, 2016
p1034
sg7
(dp1035
g237
I0
sg49
I0
ssg11
(dp1036
g237
(lp1037
sg49
(lp1038
I2
aI2
aI3
assg15
I143
sg16
(lp1039
g49
ag237
asa(dp1040
g5
VWednesday, November 2, 2016
p1041
sg7
(dp1042
g143
I0
sg85
I0
ssg11
(dp1043
g143
(lp1044
I2
aI3
aI3
aI4
asg85
(lp1045
I1
aI1
aI3
assg15
I144
sg16
(lp1046
g143
ag85
asa(dp1047
g5
VWednesday, November 2, 2016
p1048
sg7
(dp1049
g67
I0
sg120
I0
ssg11
(dp1050
g67
(lp1051
I1
aI1
aI2
aI3
aI3
asg120
(lp1052
I1
assg15
I145
sg16
(lp1053
g120
ag67
asa(dp1054
g5
VThursday, November 3, 2016
p1055
sg7
(dp1056
g9
I0
sg48
I0
ssg11
(dp1057
g9
(lp1058
I1
aI2
asg48
(lp1059
I2
assg15
I146
sg16
(lp1060
g48
ag9
asa(dp1061
g5
VThursday, November 3, 2016
p1062
sg7
(dp1063
g143
I1
sg58
I0
ssg11
(dp1064
g143
(lp1065
I2
aI3
asg58
(lp1066
I2
aI3
assg15
I147
sg16
(lp1067
g58
ag143
asa(dp1068
g5
VThursday, November 3, 2016
p1069
sg7
(dp1070
g57
I0
sg31
I0
ssg11
(dp1071
g57
(lp1072
I1
aI2
aI3
aI3
aI3
asg31
(lp1073
I1
aI2
aI3
assg15
I148
sg16
(lp1074
g57
ag31
asa(dp1075
g5
VThursday, November 3, 2016
p1076
sg7
(dp1077
g66
I0
sg111
I0
ssg11
(dp1078
g66
(lp1079
I1
aI2
aI2
aI4
asg111
(lp1080
I3
aI3
aI3
assg15
I149
sg16
(lp1081
g66
ag111
asa(dp1082
g5
VThursday, November 3, 2016
p1083
sg7
(dp1084
g10
I0
sg237
I0
ssg11
(dp1085
g10
(lp1086
I2
asg237
(lp1087
ssg15
I150
sg16
(lp1088
g10
ag237
asa(dp1089
g5
VThursday, November 3, 2016
p1090
sg7
(dp1091
g76
I2
sg84
I1
ssg11
(dp1092
g76
(lp1093
I1
aI1
aI2
asg84
(lp1094
I1
aI2
aI3
assg15
I151
sg16
(lp1095
g84
ag76
asa(dp1096
g5
VThursday, November 3, 2016
p1097
sg7
(dp1098
g93
I0
sg94
I0
ssg11
(dp1099
g93
(lp1100
I1
aI2
aI3
aI4
asg94
(lp1101
I2
aI3
aI3
assg15
I152
sg16
(lp1102
g93
ag94
asa(dp1103
g5
VThursday, November 3, 2016
p1104
sg7
(dp1105
g22
I0
sg221
I0
ssg11
(dp1106
g22
(lp1107
I1
aI1
aI3
aI3
asg221
(lp1108
ssg15
I153
sg16
(lp1109
g22
ag221
asa(dp1110
g5
VThursday, November 3, 2016
p1111
sg7
(dp1112
g119
I0
sg21
I0
ssg11
(dp1113
g119
(lp1114
I2
aI2
aI3
aI3
aI3
aI3
asg21
(lp1115
I2
aI3
assg15
I154
sg16
(lp1116
g119
ag21
asa(dp1117
g5
VThursday, November 3, 2016
p1118
sg7
(dp1119
g128
I0
sg229
I2
ssg11
(dp1120
g128
(lp1121
I1
aI2
asg229
(lp1122
I1
aI3
assg15
I155
sg16
(lp1123
g229
ag128
asa(dp1124
g5
VThursday, November 3, 2016
p1125
sg7
(dp1126
g67
I0
sg40
I0
ssg11
(dp1127
g67
(lp1128
I1
aI3
asg40
(lp1129
I2
aI3
aI4
assg15
I156
sg16
(lp1130
g40
ag67
asa(dp1131
g5
VThursday, November 3, 2016
p1132
sg7
(dp1133
g30
I0
sg39
I0
ssg11
(dp1134
g30
(lp1135
I2
aI2
aI3
asg39
(lp1136
I3
aI3
assg15
I157
sg16
(lp1137
g39
ag30
asa(dp1138
g5
VFriday, November 4, 2016
p1139
sg7
(dp1140
g75
I0
sg49
I0
ssg11
(dp1141
g75
(lp1142
I1
aI1
aI1
aI2
aI2
aI2
aI2
aI2
aI3
aI3
asg49
(lp1143
ssg15
I158
sg16
(lp1144
g75
ag49
asa(dp1145
g5
VFriday, November 4, 2016
p1146
sg7
(dp1147
g111
I0
sg85
I0
ssg11
(dp1148
g111
(lp1149
I1
aI3
aI3
aI3
aI3
asg85
(lp1150
I1
aI2
aI3
assg15
I159
sg16
(lp1151
g85
ag111
asa(dp1152
g5
VFriday, November 4, 2016
p1153
sg7
(dp1154
g229
I0
sg120
I0
ssg11
(dp1155
g229
(lp1156
I2
asg120
(lp1157
I1
aI1
aI1
aI2
aI3
assg15
I160
sg16
(lp1158
g120
ag229
asa(dp1159
g5
VSaturday, November 5, 2016
p1160
sg7
(dp1161
g221
I0
sg102
I0
ssg11
(dp1162
g221
(lp1163
I3
asg102
(lp1164
ssg15
I161
sg16
(lp1165
g221
ag102
asa(dp1166
g5
VSaturday, November 5, 2016
p1167
sg7
(dp1168
g57
I0
sg76
I0
ssg11
(dp1169
g57
(lp1170
I1
aI1
aI2
aI3
aI3
asg76
(lp1171
I1
aI3
assg15
I162
sg16
(lp1172
g76
ag57
asa(dp1173
g5
VSaturday, November 5, 2016
p1174
sg7
(dp1175
g9
I0
sg237
I0
ssg11
(dp1176
g9
(lp1177
I1
aI1
aI2
aI3
aI3
aI3
asg237
(lp1178
I1
aI2
aI3
assg15
I163
sg16
(lp1179
g9
ag237
asa(dp1180
g5
VSaturday, November 5, 2016
p1181
sg7
(dp1182
g143
I0
sg49
I0
ssg11
(dp1183
g143
(lp1184
I1
aI1
aI3
aI3
asg49
(lp1185
I1
aI1
aI2
aI3
aI3
assg15
I164
sg16
(lp1186
g49
ag143
asa(dp1187
g5
VSaturday, November 5, 2016
p1188
sg7
(dp1189
g10
I0
sg48
I0
ssg11
(dp1190
g10
(lp1191
I2
asg48
(lp1192
I3
aI3
assg15
I165
sg16
(lp1193
g10
ag48
asa(dp1194
g5
VSaturday, November 5, 2016
p1195
sg7
(dp1196
g94
I0
sg84
I0
ssg11
(dp1197
g94
(lp1198
I1
asg84
(lp1199
I2
aI2
aI3
aI3
assg15
I166
sg16
(lp1200
g84
ag94
asa(dp1201
S'date'
p1202
S'Saturday, November 5, 2016'
p1203
sS'shootout'
p1204
(dp1205
S'NYI'
p1206
I0
sS'EDM'
p1207
I1
ssS'teams'
p1208
(lp1209
g1207
ag1206
asS'score'
p1210
(dp1211
g1206
(lp1212
I1
aI1
aI2
asg1207
(lp1213
I1
aI1
aI2
assS'number'
p1214
I167
sa(dp1215
g5
VSaturday, November 5, 2016
p1216
sg7
(dp1217
g93
I0
sg66
I0
ssg11
(dp1218
g93
(lp1219
I1
aI3
asg66
(lp1220
I2
aI3
aI3
aI3
assg15
I168
sg16
(lp1221
g66
ag93
asa(dp1222
g5
VSaturday, November 5, 2016
p1223
sg7
(dp1224
g21
I0
sg75
I0
ssg11
(dp1225
g21
(lp1226
I3
aI4
asg75
(lp1227
I2
assg15
I169
sg16
(lp1228
g21
ag75
asa(dp1229
g5
VSaturday, November 5, 2016
p1230
sg7
(dp1231
g128
I0
sg110
I1
ssg11
(dp1232
g128
(lp1233
I1
aI2
asg110
(lp1234
I2
aI3
assg15
I170
sg16
(lp1235
g128
ag110
asa(dp1236
g5
VSaturday, November 5, 2016
p1237
sg7
(dp1238
g119
I0
sg22
I0
ssg11
(dp1239
g119
(lp1240
I1
aI1
asg22
(lp1241
I1
aI2
aI2
assg15
I171
sg16
(lp1242
g119
ag22
asa(dp1243
g5
VSaturday, November 5, 2016
p1244
sg7
(dp1245
g30
I0
sg40
I0
ssg11
(dp1246
g30
(lp1247
sg40
(lp1248
I1
aI1
aI2
aI2
aI3
assg15
I172
sg16
(lp1249
g40
ag30
asa(dp1250
g5
VSaturday, November 5, 2016
p1251
sg7
(dp1252
g39
I0
sg67
I0
ssg11
(dp1253
g39
(lp1254
sg67
(lp1255
I1
aI1
aI2
aI2
aI2
assg15
I173
sg16
(lp1256
g39
ag67
asa(dp1257
g5
VSunday, November 6, 2016
p1258
sg7
(dp1259
g85
I0
sg31
I0
ssg11
(dp1260
g85
(lp1261
I1
asg31
(lp1262
I1
aI2
assg15
I174
sg16
(lp1263
g85
ag31
asa(dp1264
g5
VSunday, November 6, 2016
p1265
sg7
(dp1266
g21
I0
sg221
I0
ssg11
(dp1267
g21
(lp1268
I1
aI1
aI2
aI2
aI2
asg221
(lp1269
I2
assg15
I175
sg16
(lp1270
g21
ag221
asa(dp1271
g5
VSunday, November 6, 2016
p1272
sg7
(dp1273
g110
I0
sg94
I0
ssg11
(dp1274
g110
(lp1275
I3
asg94
(lp1276
I2
aI2
aI3
aI3
assg15
I176
sg16
(lp1277
g110
ag94
asa(dp1278
g5
VSunday, November 6, 2016
p1279
sg7
(dp1280
g57
I0
sg111
I0
ssg11
(dp1281
g57
(lp1282
I1
aI2
aI2
aI2
aI2
asg111
(lp1283
I1
aI2
assg15
I177
sg16
(lp1284
g57
ag111
asa(dp1285
g5
VSunday, November 6, 2016
p1286
sg7
(dp1287
g119
I0
sg22
I0
ssg11
(dp1288
g119
(lp1289
I1
aI2
aI3
asg22
(lp1290
I2
aI3
aI3
aI4
assg15
I178
sg16
(lp1291
g22
ag119
asa(dp1292
g5
VSunday, November 6, 2016
p1293
sg7
(dp1294
g30
I0
sg120
I0
ssg11
(dp1295
g30
(lp1296
I1
asg120
(lp1297
I1
aI2
aI2
aI3
assg15
I179
sg16
(lp1298
g120
ag30
asa(dp1299
g5
VMonday, November 7, 2016
p1300
sg7
(dp1301
g76
I0
sg48
I0
ssg11
(dp1302
g76
(lp1303
I2
aI2
aI2
aI3
asg48
(lp1304
ssg15
I180
sg16
(lp1305
g76
ag48
asa(dp1306
g5
VMonday, November 7, 2016
p1307
sg7
(dp1308
g58
I0
sg237
I0
ssg11
(dp1309
g58
(lp1310
I1
aI2
aI3
aI3
asg237
(lp1311
I1
aI2
assg15
I181
sg16
(lp1312
g58
ag237
asa(dp1313
g5
VMonday, November 7, 2016
p1314
sg7
(dp1315
g93
I0
sg84
I0
ssg11
(dp1316
g93
(lp1317
I1
aI3
aI3
asg84
(lp1318
I3
assg15
I182
sg16
(lp1319
g93
ag84
asa(dp1320
g5
VTuesday, November 8, 2016
p1321
sg7
(dp1322
g110
I0
sg94
I2
ssg11
(dp1323
g110
(lp1324
I2
aI2
asg94
(lp1325
I1
aI3
assg15
I183
sg16
(lp1326
g94
ag110
asa(dp1327
g5
VTuesday, November 8, 2016
p1328
sg7
(dp1329
g57
I0
sg237
I0
ssg11
(dp1330
g57
(lp1331
I2
aI3
aI3
asg237
(lp1332
I2
aI3
aI3
aI3
aI3
assg15
I184
sg16
(lp1333
g57
ag237
asa(dp1334
g5
VTuesday, November 8, 2016
p1335
sg7
(dp1336
g143
I0
sg85
I1
ssg11
(dp1337
g143
(lp1338
I1
aI3
asg85
(lp1339
I1
aI3
assg15
I185
sg16
(lp1340
g143
ag85
asa(dp1341
g5
VTuesday, November 8, 2016
p1342
sg7
(dp1343
g67
I0
sg31
I0
ssg11
(dp1344
g67
(lp1345
I1
aI2
aI3
aI3
asg31
(lp1346
I1
aI1
aI2
assg15
I186
sg16
(lp1347
g67
ag31
asa(dp1348
g5
VTuesday, November 8, 2016
p1349
sg7
(dp1350
g66
I0
sg39
I0
ssg11
(dp1351
g66
(lp1352
sg39
(lp1353
I2
aI2
aI3
assg15
I187
sg16
(lp1354
g66
ag39
asa(dp1355
g5
VTuesday, November 8, 2016
p1356
sg7
(dp1357
g9
I0
sg40
I0
ssg11
(dp1358
g9
(lp1359
sg40
(lp1360
I1
aI2
aI2
aI2
aI2
aI3
aI3
assg15
I188
sg16
(lp1361
g9
ag40
asa(dp1362
g5
VTuesday, November 8, 2016
p1363
sg7
(dp1364
g76
I0
sg49
I0
ssg11
(dp1365
g76
(lp1366
I2
aI3
asg49
(lp1367
I2
aI2
aI3
assg15
I189
sg16
(lp1368
g49
ag76
asa(dp1369
g5
VTuesday, November 8, 2016
p1370
sg7
(dp1371
g128
I0
sg10
I0
ssg11
(dp1372
g128
(lp1373
I2
aI2
aI3
asg10
(lp1374
I3
assg15
I190
sg16
(lp1375
g128
ag10
asa(dp1376
g5
VTuesday, November 8, 2016
p1377
sg7
(dp1378
g119
I0
sg111
I0
ssg11
(dp1379
g119
(lp1380
I2
aI3
asg111
(lp1381
I1
aI1
aI2
aI2
aI2
aI2
aI3
aI3
assg15
I191
sg16
(lp1382
g111
ag119
asa(dp1383
g5
VTuesday, November 8, 2016
p1384
sg7
(dp1385
g229
I0
sg221
I0
ssg11
(dp1386
g229
(lp1387
I1
aI2
aI2
aI3
asg221
(lp1388
I2
aI2
assg15
I192
sg16
(lp1389
g221
ag229
asa(dp1390
g5
VWednesday, November 9, 2016
p1391
sg7
(dp1392
g75
I0
sg120
I0
ssg11
(dp1393
g75
(lp1394
I1
aI1
aI4
asg120
(lp1395
I2
aI3
assg15
I193
sg16
(lp1396
g75
ag120
asa(dp1397
g5
VWednesday, November 9, 2016
p1398
sg7
(dp1399
g48
I1
sg10
I2
ssg11
(dp1400
g48
(lp1401
I1
asg10
(lp1402
I2
assg15
I194
sg16
(lp1403
g48
ag10
asa(dp1404
g5
VWednesday, November 9, 2016
p1405
sg7
(dp1406
g21
I0
sg22
I0
ssg11
(dp1407
g21
(lp1408
I3
asg22
(lp1409
I2
aI4
assg15
I195
sg16
(lp1410
g21
ag22
asa(dp1411
g5
VThursday, November 10, 2016
p1412
sg7
(dp1413
g75
I0
sg76
I0
ssg11
(dp1414
g75
(lp1415
I1
aI3
asg76
(lp1416
I1
aI1
aI1
aI1
aI2
assg15
I196
sg16
(lp1417
g76
ag75
asa(dp1418
g5
VThursday, November 10, 2016
p1419
sg7
(dp1420
g67
I0
sg102
I0
ssg11
(dp1421
g67
(lp1422
I1
aI2
asg102
(lp1423
I1
aI2
aI3
aI3
assg15
I197
sg16
(lp1424
g67
ag102
asa(dp1425
g5
VThursday, November 10, 2016
p1426
sg7
(dp1427
g110
I0
sg120
I0
ssg11
(dp1428
g110
(lp1429
I2
aI3
asg120
(lp1430
I2
aI2
aI2
aI3
assg15
I198
sg16
(lp1431
g110
ag120
asa(dp1432
g5
VThursday, November 10, 2016
p1433
sg7
(dp1434
g49
I0
sg40
I0
ssg11
(dp1435
g49
(lp1436
I1
aI1
aI2
aI3
asg40
(lp1437
I3
assg15
I199
sg16
(lp1438
g49
ag40
asa(dp1439
g5
VThursday, November 10, 2016
p1440
sg7
(dp1441
g85
I0
sg237
I0
ssg11
(dp1442
g85
(lp1443
I1
aI1
aI3
asg237
(lp1444
I3
assg15
I200
sg16
(lp1445
g85
ag237
asa(dp1446
g5
VThursday, November 10, 2016
p1447
sg7
(dp1448
g58
I0
sg84
I0
ssg11
(dp1449
g58
(lp1450
I2
asg84
(lp1451
I1
aI1
aI2
aI3
assg15
I201
sg16
(lp1452
g84
ag58
asa(dp1453
g5
VThursday, November 10, 2016
p1454
sg7
(dp1455
g93
I0
sg39
I0
ssg11
(dp1456
g93
(lp1457
I1
aI1
asg39
(lp1458
I1
aI2
aI3
aI3
assg15
I202
sg16
(lp1459
g93
ag39
asa(dp1460
g5
VThursday, November 10, 2016
p1461
sg7
(dp1462
g128
I0
sg21
I0
ssg11
(dp1463
g128
(lp1464
I2
aI3
aI3
asg21
(lp1465
I1
assg15
I203
sg16
(lp1466
g128
ag21
asa(dp1467
g5
VThursday, November 10, 2016
p1468
sg7
(dp1469
g30
I0
sg119
I0
ssg11
(dp1470
g30
(lp1471
I2
aI2
asg119
(lp1472
I1
aI1
aI3
aI3
assg15
I204
sg16
(lp1473
g30
ag119
asa(dp1474
g5
VThursday, November 10, 2016
p1475
sg7
(dp1476
g229
I0
sg111
I0
ssg11
(dp1477
g229
(lp1478
I1
aI3
asg111
(lp1479
I1
aI2
aI3
assg15
I205
sg16
(lp1480
g229
ag111
asa(dp1481
g5
VFriday, November 11, 2016
p1482
sg7
(dp1483
g94
I0
sg48
I0
ssg11
(dp1484
g94
(lp1485
I3
aI4
asg48
(lp1486
I1
assg15
I206
sg16
(lp1487
g48
ag94
asa(dp1488
g5
VFriday, November 11, 2016
p1489
sg7
(dp1490
g9
I0
sg143
I0
ssg11
(dp1491
g9
(lp1492
I1
aI1
aI3
aI3
aI3
aI3
asg143
(lp1493
I1
aI1
aI2
assg15
I207
sg16
(lp1494
g9
ag143
asa(dp1495
g5
VFriday, November 11, 2016
p1496
sg7
(dp1497
g10
I0
sg40
I0
ssg11
(dp1498
g10
(lp1499
I3
aI3
asg40
(lp1500
I2
assg15
I208
sg16
(lp1501
g10
ag40
asa(dp1502
g5
VFriday, November 11, 2016
p1503
sg7
(dp1504
g22
I0
sg66
I0
ssg11
(dp1505
g22
(lp1506
I1
aI3
asg66
(lp1507
I1
aI1
aI4
assg15
I209
sg16
(lp1508
g22
ag66
asa(dp1509
g5
VFriday, November 11, 2016
p1510
sg7
(dp1511
g111
I0
sg221
I0
ssg11
(dp1512
g111
(lp1513
I2
aI2
asg221
(lp1514
I2
aI2
aI4
assg15
I210
sg16
(lp1515
g221
ag111
asa(dp1516
g5
VFriday, November 11, 2016
p1517
sg7
(dp1518
g119
I0
sg31
I0
ssg11
(dp1519
g119
(lp1520
I1
aI1
aI2
asg31
(lp1521
I1
aI1
assg15
I211
sg16
(lp1522
g31
ag119
asas.