(dp0
S'season'
p1
I2017
sS'games'
p2
(lp3
(dp4
S'date'
p5
VWednesday, October 12, 2016
p6
sS'score'
p7
(dp8
S'TOR'
p9
(lp10
I1
aI1
aI2
aI2
asS'OTT'
p11
(lp12
I1
aI1
aI2
aI3
aI4
assS'shootout'
p13
(dp14
g9
I0
sg11
I0
ssS'number'
p15
I1
sS'teams'
p16
(lp17
g11
ag9
asa(dp18
g5
VWednesday, October 12, 2016
p19
sg7
(dp20
S'STL'
p21
(lp22
I2
aI2
aI3
aI3
aI3
asS'CHI'
p23
(lp24
I1
aI2
assg13
(dp25
g21
I0
sg23
I0
ssg15
I2
sg16
(lp26
g23
ag21
asa(dp27
g5
VWednesday, October 12, 2016
p28
sg7
(dp29
S'CGY'
p30
(lp31
I1
aI2
aI2
aI3
asS'EDM'
p32
(lp33
I1
aI1
aI1
aI2
aI2
aI3
aI3
assg13
(dp34
g30
I0
sg32
I0
ssg15
I3
sg16
(lp35
g32
ag30
asa(dp36
g5
VWednesday, October 12, 2016
p37
sg7
(dp38
S'SJ'
p39
(lp40
I1
aI3
asS'LA'
p41
(lp42
I1
assg13
(dp43
g39
I0
sg41
I0
ssg15
I4
sg16
(lp44
g39
ag41
asa(dp45
g5
VThursday, October 13, 2016
p46
sg7
(dp47
S'BUF'
p48
(lp49
I3
asS'MTL'
p50
(lp51
I1
aI2
aI3
aI3
assg13
(dp52
g48
I0
sg50
I0
ssg15
I5
sg16
(lp53
g48
ag50
asa(dp54
g5
VThursday, October 13, 2016
p55
sg7
(dp56
S'NYR'
p57
(lp58
I1
aI2
aI3
aI3
aI3
asS'NYI'
p59
(lp60
I3
aI3
aI3
assg13
(dp61
g57
I0
sg59
I0
ssg15
I6
sg16
(lp62
g57
ag59
asa(dp63
g5
VThursday, October 13, 2016
p64
sg7
(dp65
S'WSH'
p66
(lp67
I1
aI3
asS'PIT'
p68
(lp69
I2
aI2
assg13
(dp70
g66
I2
sg68
I3
ssg15
I7
sg16
(lp71
g68
ag66
asa(dp72
g5
VThursday, October 13, 2016
p73
sg7
(dp74
S'CBJ'
p75
(lp76
I1
aI1
aI2
asS'BOS'
p77
(lp78
I2
aI2
aI2
aI3
aI3
aI3
assg13
(dp79
g75
I0
sg77
I0
ssg15
I8
sg16
(lp80
g75
ag77
asa(dp81
g5
VThursday, October 13, 2016
p82
sg7
(dp83
S'DET'
p84
(lp85
I1
aI1
aI2
aI3
asS'TB'
p86
(lp87
I2
aI2
aI3
aI3
aI3
aI3
assg13
(dp88
g84
I0
sg86
I0
ssg15
I9
sg16
(lp89
g86
ag84
asa(dp90
g5
VThursday, October 13, 2016
p91
sg7
(dp92
S'FLA'
p93
(lp94
I1
aI4
asS'NJ'
p95
(lp96
I1
assg13
(dp97
g93
I0
sg95
I0
ssg15
I10
sg16
(lp98
g93
ag95
asa(dp99
g5
VThursday, October 13, 2016
p100
sg7
(dp101
g21
(lp102
I1
aI2
aI3
asS'MIN'
p103
(lp104
I2
aI3
assg13
(dp105
g21
I0
sg103
I0
ssg15
I11
sg16
(lp106
g21
ag103
asa(dp107
g5
VThursday, October 13, 2016
p108
sg7
(dp109
S'CAR'
p110
(lp111
I1
aI2
aI2
aI3
asS'WPG'
p112
(lp113
I1
aI3
aI3
aI3
aI4
assg13
(dp114
g110
I0
sg112
I0
ssg15
I12
sg16
(lp115
g112
ag110
asa(dp116
g5
VThursday, October 13, 2016
p117
sg7
(dp118
S'DAL'
p119
(lp120
I1
aI2
aI3
aI3
asS'ANA'
p121
(lp122
I1
aI3
assg13
(dp123
g119
I0
sg121
I0
ssg15
I13
sg16
(lp124
g119
ag121
asa(dp125
g5
VFriday, October 14, 2016
p126
sg7
(dp127
S'NSH'
p128
(lp129
I1
aI1
aI2
asg23
(lp130
I1
aI1
assg13
(dp131
g128
I0
sg23
I0
ssg15
I14
sg16
(lp132
g128
ag23
asa(dp133
g5
VFriday, October 14, 2016
p134
sg7
(dp135
g30
(lp136
I1
aI1
aI3
asg32
(lp137
I1
aI2
aI3
aI3
aI3
assg13
(dp138
g30
I0
sg32
I0
ssg15
I15
sg16
(lp139
g30
ag32
asa(dp140
g5
VFriday, October 14, 2016
p141
sg7
(dp142
S'PHI'
p143
(lp144
I2
aI2
aI2
aI2
asg41
(lp145
I2
aI3
assg13
(dp146
g143
I0
sg41
I0
ssg15
I16
sg16
(lp147
g41
ag143
asa(dp148
g5
VSaturday, October 15, 2016
p149
sg7
(dp150
g9
(lp151
I1
aI1
aI1
aI3
asg77
(lp152
I1
assg13
(dp153
g9
I0
sg77
I0
ssg15
I17
sg16
(lp154
g9
ag77
asa(dp155
g5
VSaturday, October 15, 2016
p156
sg7
(dp157
g11
(lp158
I1
aI1
aI3
asg50
(lp159
I2
aI3
aI3
assg13
(dp160
g11
I2
sg50
I1
ssg15
I18
sg16
(lp161
g11
ag50
asa(dp162
g5
VSaturday, October 15, 2016
p163
sg7
(dp164
g95
(lp165
I1
aI1
asg86
(lp166
I2
aI2
aI3
assg13
(dp167
g95
I0
sg86
I0
ssg15
I19
sg16
(lp168
g86
ag95
asa(dp169
g5
VSaturday, October 15, 2016
p170
sg7
(dp171
g93
(lp172
I1
aI1
aI3
aI3
asg84
(lp173
I1
assg13
(dp174
g93
I0
sg84
I0
ssg15
I20
sg16
(lp175
g93
ag84
asa(dp176
g5
VSaturday, October 15, 2016
p177
sg7
(dp178
g68
(lp179
I1
aI2
aI2
asg121
(lp180
I1
aI2
assg13
(dp181
g68
I0
sg121
I0
ssg15
I21
sg16
(lp182
g68
ag121
asa(dp183
g5
VSaturday, October 15, 2016
p184
sg7
(dp185
g66
(lp186
I1
aI2
asg59
(lp187
I1
assg13
(dp188
g66
I0
sg59
I0
ssg15
I22
sg16
(lp189
g66
ag59
asa(dp190
g5
VSaturday, October 15, 2016
p191
sg7
(dp192
g75
(lp193
I3
aI3
asg39
(lp194
I1
aI1
aI3
assg13
(dp195
g75
I0
sg39
I0
ssg15
I23
sg16
(lp196
g75
ag39
asa(dp197
g5
VSaturday, October 15, 2016
p198
sg7
(dp199
g112
(lp200
I1
aI1
aI3
asg103
(lp201
I2
aI2
aI2
aI3
assg13
(dp202
g112
I0
sg103
I0
ssg15
I24
sg16
(lp203
g103
ag112
asa(dp204
g5
VSaturday, October 15, 2016
p205
sg7
(dp206
g21
(lp207
I1
aI1
aI2
asg57
(lp208
I1
aI2
assg13
(dp209
g21
I0
sg57
I0
ssg15
I25
sg16
(lp210
g21
ag57
asa(dp211
g5
VSaturday, October 15, 2016
p212
sg7
(dp213
g128
(lp214
I1
aI2
aI3
asg23
(lp215
I1
aI1
aI1
aI3
aI3
assg13
(dp216
g128
I0
sg23
I0
ssg15
I26
sg16
(lp217
g23
ag128
asa(dp218
g5
VSaturday, October 15, 2016
p219
sg7
(dp220
g119
(lp221
I1
aI1
aI2
aI2
aI3
asS'COL'
p222
(lp223
I1
aI1
aI2
aI2
aI2
aI3
assg13
(dp224
g119
I0
sg222
I0
ssg15
I27
sg16
(lp225
g222
ag119
asa(dp226
g5
VSaturday, October 15, 2016
p227
sg7
(dp228
S'ARI'
p229
(lp230
I1
aI1
aI2
aI4
asg143
(lp231
I1
aI2
aI3
assg13
(dp232
g229
I0
sg143
I0
ssg15
I28
sg16
(lp233
g229
ag143
asa(dp234
g5
VSaturday, October 15, 2016
p235
sg7
(dp236
g30
(lp237
I1
asS'VAN'
p238
(lp239
I3
assg13
(dp240
g30
I0
sg238
I1
ssg15
I29
sg16
(lp241
g238
ag30
asa(dp242
g5
VSunday, October 16, 2016
p243
sg7
(dp244
g59
(lp245
I1
aI3
aI4
asg121
(lp246
I3
aI3
assg13
(dp247
g59
I0
sg121
I0
ssg15
I30
sg16
(lp248
g59
ag121
asa(dp249
g5
VSunday, October 16, 2016
p250
sg7
(dp251
g48
(lp252
I1
aI1
aI2
aI2
aI3
aI3
asg32
(lp253
I1
aI1
assg13
(dp254
g48
I0
sg32
I0
ssg15
I31
sg16
(lp255
g32
ag48
asa(dp256
g5
VSunday, October 16, 2016
p257
sg7
(dp258
g110
(lp259
I1
aI1
aI2
asg238
(lp260
I2
aI3
aI3
aI4
assg13
(dp261
g110
I0
sg238
I0
ssg15
I32
sg16
(lp262
g238
ag110
asa(dp263
g5
VMonday, October 17, 2016
p264
sg7
(dp265
g57
(lp266
I1
aI2
aI2
aI3
aI3
aI3
aI3
asg39
(lp267
I1
aI3
aI3
aI3
assg13
(dp268
g57
I0
sg39
I0
ssg15
I33
sg16
(lp269
g57
ag39
asa(dp270
g5
VMonday, October 17, 2016
p271
sg7
(dp272
g68
(lp273
I1
aI1
aI3
asg222
(lp274
I1
aI1
aI3
aI4
assg13
(dp275
g68
I0
sg222
I0
ssg15
I34
sg16
(lp276
g68
ag222
asa(dp277
g5
VMonday, October 17, 2016
p278
sg7
(dp279
g11
(lp280
I2
asg84
(lp281
I1
aI1
aI1
aI3
aI3
assg13
(dp282
g11
I0
sg84
I0
ssg15
I35
sg16
(lp283
g84
ag11
asa(dp284
g5
VMonday, October 17, 2016
p285
sg7
(dp286
g77
(lp287
I1
aI2
aI3
aI3
asg112
(lp288
I1
assg13
(dp289
g77
I0
sg112
I0
ssg15
I36
sg16
(lp290
g112
ag77
asa(dp291
g5
VTuesday, October 18, 2016
p292
sg7
(dp293
g95
(lp294
I2
aI2
asg121
(lp295
I1
assg13
(dp296
g95
I0
sg121
I0
ssg15
I37
sg16
(lp297
g95
ag121
asa(dp298
g5
VTuesday, October 18, 2016
p299
sg7
(dp300
g39
(lp301
I1
aI2
aI3
asg59
(lp302
I2
aI2
assg13
(dp303
g39
I0
sg59
I0
ssg15
I38
sg16
(lp304
g59
ag39
asa(dp305
g5
VTuesday, October 18, 2016
p306
sg7
(dp307
g66
(lp308
I1
aI2
aI3
asg222
(lp309
ssg13
(dp310
g66
I0
sg222
I0
ssg15
I39
sg16
(lp311
g66
ag222
asa(dp312
g5
VTuesday, October 18, 2016
p313
sg7
(dp314
g68
(lp315
sg50
(lp316
I1
aI2
aI3
aI3
assg13
(dp317
g68
I0
sg50
I0
ssg15
I40
sg16
(lp318
g50
ag68
asa(dp319
g5
VTuesday, October 18, 2016
p320
sg7
(dp321
g229
(lp322
I1
aI3
aI3
aI3
asg11
(lp323
I1
aI1
aI2
aI3
aI3
aI3
aI3
assg13
(dp324
g229
I0
sg11
I0
ssg15
I41
sg16
(lp325
g11
ag229
asa(dp326
g5
VTuesday, October 18, 2016
p327
sg7
(dp328
g93
(lp329
I2
aI3
aI3
asg86
(lp330
I2
aI2
aI3
assg13
(dp331
g93
I1
sg86
I2
ssg15
I42
sg16
(lp332
g86
ag93
asa(dp333
g5
VTuesday, October 18, 2016
p334
sg7
(dp335
g128
(lp336
I2
asg119
(lp337
I2
aI3
assg13
(dp338
g128
I0
sg119
I0
ssg15
I43
sg16
(lp339
g128
ag119
asa(dp340
g5
VTuesday, October 18, 2016
p341
sg7
(dp342
g41
(lp343
I1
aI3
aI3
asg103
(lp344
I1
aI1
aI2
aI2
aI2
aI3
assg13
(dp345
g41
I0
sg103
I0
ssg15
I44
sg16
(lp346
g103
ag41
asa(dp347
g5
VTuesday, October 18, 2016
p348
sg7
(dp349
g23
(lp350
I1
aI1
aI1
aI2
aI3
aI3
aI3
asg143
(lp351
I2
aI3
aI3
aI3
assg13
(dp352
g23
I0
sg143
I0
ssg15
I45
sg16
(lp353
g23
ag143
asa(dp354
g5
VTuesday, October 18, 2016
p355
sg7
(dp356
g30
(lp357
I1
aI3
aI3
aI4
asg48
(lp358
I1
aI2
aI3
assg13
(dp359
g30
I0
sg48
I0
ssg15
I46
sg16
(lp360
g30
ag48
asa(dp361
g5
VTuesday, October 18, 2016
p362
sg7
(dp363
g110
(lp364
I3
aI3
asg32
(lp365
I1
aI1
aI2
assg13
(dp366
g110
I0
sg32
I0
ssg15
I47
sg16
(lp367
g32
ag110
asa(dp368
g5
VTuesday, October 18, 2016
p369
sg7
(dp370
g21
(lp371
I2
asg238
(lp372
I3
aI4
assg13
(dp373
g21
I0
sg238
I0
ssg15
I48
sg16
(lp374
g238
ag21
asa(dp375
g5
VWednesday, October 19, 2016
p376
sg7
(dp377
g57
(lp378
I1
asg84
(lp379
I2
aI3
assg13
(dp380
g57
I0
sg84
I0
ssg15
I49
sg16
(lp381
g57
ag84
asa(dp382
g5
VWednesday, October 19, 2016
p383
sg7
(dp384
g9
(lp385
I1
aI1
aI2
aI2
asg112
(lp386
I2
aI3
aI3
aI3
aI4
assg13
(dp387
g9
I0
sg112
I0
ssg15
I50
sg16
(lp388
g112
ag9
asa(dp389
g5
VThursday, October 20, 2016
p390
sg7
(dp391
g95
(lp392
I3
asg77
(lp393
I3
aI3
assg13
(dp394
g95
I0
sg77
I0
ssg15
I51
sg16
(lp395
g77
ag95
asa(dp396
g5
VThursday, October 20, 2016
p397
sg7
(dp398
g143
(lp399
I2
aI2
asg121
(lp400
I1
aI2
aI3
assg13
(dp401
g143
I0
sg121
I0
ssg15
I52
sg16
(lp402
g143
ag121
asa(dp403
g5
VThursday, October 20, 2016
p404
sg7
(dp405
g39
(lp406
I2
aI2
asg68
(lp407
I3
aI3
aI3
assg13
(dp408
g39
I0
sg68
I0
ssg15
I53
sg16
(lp409
g68
ag39
asa(dp410
g5
VThursday, October 20, 2016
p411
sg7
(dp412
g229
(lp413
I2
aI2
asg50
(lp414
I1
aI2
aI2
aI2
aI3
assg13
(dp415
g229
I0
sg50
I0
ssg15
I54
sg16
(lp416
g50
ag229
asa(dp417
g5
VThursday, October 20, 2016
p418
sg7
(dp419
g86
(lp420
sg222
(lp421
I1
aI2
aI3
aI3
assg13
(dp422
g86
I0
sg222
I0
ssg15
I55
sg16
(lp423
g86
ag222
asa(dp424
g5
VThursday, October 20, 2016
p425
sg7
(dp426
g93
(lp427
I1
aI2
asg66
(lp428
I1
aI1
aI3
aI3
assg13
(dp429
g93
I0
sg66
I0
ssg15
I56
sg16
(lp430
g93
ag66
asa(dp431
g5
VThursday, October 20, 2016
p432
sg7
(dp433
g9
(lp434
I2
aI2
asg103
(lp435
I2
aI3
aI3
assg13
(dp436
g9
I0
sg103
I0
ssg15
I57
sg16
(lp437
g103
ag9
asa(dp438
g5
VThursday, October 20, 2016
p439
sg7
(dp440
g119
(lp441
I1
aI2
aI3
asg41
(lp442
I1
aI2
aI2
aI4
assg13
(dp443
g119
I0
sg41
I0
ssg15
I58
sg16
(lp444
g119
ag41
asa(dp445
g5
VThursday, October 20, 2016
p446
sg7
(dp447
g30
(lp448
I2
aI3
asg110
(lp449
I1
aI1
aI2
aI3
assg13
(dp450
g30
I0
sg110
I0
ssg15
I59
sg16
(lp451
g30
ag110
asa(dp452
g5
VThursday, October 20, 2016
p453
sg7
(dp454
g21
(lp455
I2
asg32
(lp456
I2
aI3
aI3
assg13
(dp457
g21
I0
sg32
I0
ssg15
I60
sg16
(lp458
g32
ag21
asa(dp459
g5
VThursday, October 20, 2016
p460
sg7
(dp461
g48
(lp462
I3
asg238
(lp463
I2
aI3
assg13
(dp464
g48
I0
sg238
I0
ssg15
I61
sg16
(lp465
g238
ag48
asa(dp466
g5
VFriday, October 21, 2016
p467
sg7
(dp468
g229
(lp469
I1
aI1
asg59
(lp470
I1
aI1
aI3
assg13
(dp471
g229
I0
sg59
I0
ssg15
I62
sg16
(lp472
g59
ag229
asa(dp473
g5
VFriday, October 21, 2016
p474
sg7
(dp475
g75
(lp476
I1
aI2
aI2
asg23
(lp477
I2
aI3
assg13
(dp478
g75
I0
sg23
I0
ssg15
I63
sg16
(lp479
g75
ag23
asa(dp480
g5
VFriday, October 21, 2016
p481
sg7
(dp482
g128
(lp483
I2
aI2
aI3
asg84
(lp484
I2
aI2
aI3
aI3
aI3
assg13
(dp485
g128
I0
sg84
I0
ssg15
I64
sg16
(lp486
g84
ag128
asa(dp487
g5
VSaturday, October 22, 2016
p488
sg7
(dp489
g77
(lp490
I3
aI3
asg50
(lp491
I2
aI2
aI3
aI3
assg13
(dp492
g77
I0
sg50
I0
ssg15
I65
sg16
(lp493
g77
ag50
asa(dp494
g5
VSaturday, October 22, 2016
p495
sg7
(dp496
g86
(lp497
I2
aI2
aI3
aI3
asg11
(lp498
I2
assg13
(dp499
g86
I0
sg11
I0
ssg15
I66
sg16
(lp500
g11
ag86
asa(dp501
g5
VSaturday, October 22, 2016
p502
sg7
(dp503
g39
(lp504
sg84
(lp505
I2
aI2
aI3
assg13
(dp506
g39
I0
sg84
I0
ssg15
I67
sg16
(lp507
g84
ag39
asa(dp508
g5
VSaturday, October 22, 2016
p509
sg7
(dp510
g93
(lp511
I2
aI2
aI3
aI3
aI3
asg222
(lp512
I1
aI3
assg13
(dp513
g93
I0
sg222
I0
ssg15
I68
sg16
(lp514
g93
ag222
asa(dp515
g5
VSaturday, October 22, 2016
p516
sg7
(dp517
g95
(lp518
I3
aI4
asg103
(lp519
I2
assg13
(dp520
g95
I0
sg103
I0
ssg15
I69
sg16
(lp521
g95
ag103
asa(dp522
g5
VSaturday, October 22, 2016
p523
sg7
(dp524
g110
(lp525
I2
aI2
aI2
asg143
(lp526
I2
aI2
aI2
aI2
aI3
aI3
assg13
(dp527
g110
I0
sg143
I0
ssg15
I70
sg16
(lp528
g143
ag110
asa(dp529
g5
VSaturday, October 22, 2016
p530
sg7
(dp531
g57
(lp532
I2
aI2
aI2
aI3
asg66
(lp533
I1
aI1
assg13
(dp534
g57
I0
sg66
I0
ssg15
I71
sg16
(lp535
g66
ag57
asa(dp536
g5
VSaturday, October 22, 2016
p537
sg7
(dp538
g9
(lp539
I1
aI2
aI2
aI3
asg23
(lp540
I1
aI2
aI3
aI3
assg13
(dp541
g9
I1
sg23
I2
ssg15
I72
sg16
(lp542
g23
ag9
asa(dp543
g5
VSaturday, October 22, 2016
p544
sg7
(dp545
g128
(lp546
I1
aI2
aI2
aI2
aI2
asg68
(lp547
I1
assg13
(dp548
g128
I0
sg68
I0
ssg15
I73
sg16
(lp549
g128
ag68
asa(dp550
g5
VSaturday, October 22, 2016
p551
sg7
(dp552
g119
(lp553
sg75
(lp554
I2
aI3
aI3
assg13
(dp555
g119
I0
sg75
I0
ssg15
I74
sg16
(lp556
g119
ag75
asa(dp557
g5
VSaturday, October 22, 2016
p558
sg7
(dp559
g30
(lp560
I2
aI2
aI3
aI3
asg21
(lp561
I1
aI2
aI2
aI2
aI3
aI3
assg13
(dp562
g30
I0
sg21
I0
ssg15
I75
sg16
(lp563
g30
ag21
asa(dp564
g5
VSaturday, October 22, 2016
p565
sg7
(dp566
g238
(lp567
I2
aI2
aI3
asg41
(lp568
I1
aI1
aI2
assg13
(dp569
g238
I0
sg41
I1
ssg15
I76
sg16
(lp570
g41
ag238
asa(dp571
g5
VSunday, October 23, 2016
p572
sg7
(dp573
g112
(lp574
sg32
(lp575
I2
aI2
aI2
assg13
(dp576
g112
I0
sg32
I0
ssg15
I77
sg16
(lp577
g112
ag32
asa(dp578
g5
VSunday, October 23, 2016
p579
sg7
(dp580
g59
(lp581
I2
aI2
aI2
aI3
aI3
aI3
asg103
(lp582
I2
aI2
aI3
assg13
(dp583
g59
I0
sg103
I0
ssg15
I78
sg16
(lp584
g59
ag103
asa(dp585
g5
VSunday, October 23, 2016
p586
sg7
(dp587
g57
(lp588
I1
aI2
aI3
asg229
(lp589
I1
aI2
assg13
(dp590
g57
I0
sg229
I0
ssg15
I79
sg16
(lp591
g57
ag229
asa(dp592
g5
VSunday, October 23, 2016
p593
sg7
(dp594
g238
(lp595
I1
aI3
asg121
(lp596
I1
aI2
aI3
aI3
assg13
(dp597
g238
I0
sg121
I0
ssg15
I80
sg16
(lp598
g121
ag238
asa(dp599
g5
VMonday, October 24, 2016
p600
sg7
(dp601
g143
(lp602
I2
asg50
(lp603
I2
aI3
aI3
assg13
(dp604
g143
I0
sg50
I0
ssg15
I81
sg16
(lp605
g50
ag143
asa(dp606
g5
VMonday, October 24, 2016
p607
sg7
(dp608
g30
(lp609
I1
aI2
asg23
(lp610
I2
aI3
assg13
(dp611
g30
I1
sg23
I0
ssg15
I82
sg16
(lp612
g23
ag30
asa(dp613
g5
VTuesday, October 25, 2016
p614
sg7
(dp615
g77
(lp616
sg103
(lp617
I2
aI2
aI2
aI2
aI3
assg13
(dp618
g77
I0
sg103
I0
ssg15
I83
sg16
(lp619
g77
ag103
asa(dp620
g5
VTuesday, October 25, 2016
p621
sg7
(dp622
g229
(lp623
I1
aI3
aI3
asg95
(lp624
I1
aI2
aI2
aI3
aI3
assg13
(dp625
g229
I0
sg95
I0
ssg15
I84
sg16
(lp626
g95
ag229
asa(dp627
g5
VTuesday, October 25, 2016
p628
sg7
(dp629
g143
(lp630
I3
aI3
aI3
asg48
(lp631
I2
aI2
aI2
assg13
(dp632
g143
I2
sg48
I0
ssg15
I85
sg16
(lp633
g143
ag48
asa(dp634
g5
VTuesday, October 25, 2016
p635
sg7
(dp636
g93
(lp637
I1
aI2
asg68
(lp638
I2
aI3
aI3
assg13
(dp639
g93
I0
sg68
I0
ssg15
I86
sg16
(lp640
g68
ag93
asa(dp641
g5
VTuesday, October 25, 2016
p642
sg7
(dp643
g9
(lp644
I2
aI3
aI3
asg86
(lp645
I1
aI1
aI1
aI2
aI3
aI3
aI3
assg13
(dp646
g9
I0
sg86
I0
ssg15
I87
sg16
(lp647
g9
ag86
asa(dp648
g5
VTuesday, October 25, 2016
p649
sg7
(dp650
g110
(lp651
I2
aI2
asg84
(lp652
I1
aI1
aI1
aI2
assg13
(dp653
g110
I0
sg84
I0
ssg15
I88
sg16
(lp654
g84
ag110
asa(dp655
g5
VTuesday, October 25, 2016
p656
sg7
(dp657
g21
(lp658
I3
asg30
(lp659
I1
aI1
aI2
aI3
assg13
(dp660
g21
I0
sg30
I0
ssg15
I89
sg16
(lp661
g21
ag30
asa(dp662
g5
VTuesday, October 25, 2016
p663
sg7
(dp664
g119
(lp665
I1
aI2
aI3
asg112
(lp666
I2
aI3
assg13
(dp667
g119
I0
sg112
I0
ssg15
I90
sg16
(lp668
g119
ag112
asa(dp669
g5
VTuesday, October 25, 2016
p670
sg7
(dp671
g11
(lp672
I1
aI3
aI3
asg238
(lp673
ssg13
(dp674
g11
I0
sg238
I0
ssg15
I91
sg16
(lp675
g238
ag11
asa(dp676
g5
VTuesday, October 25, 2016
p677
sg7
(dp678
g75
(lp679
I2
aI2
asg41
(lp680
I2
aI3
aI4
assg13
(dp681
g75
I0
sg41
I0
ssg15
I92
sg16
(lp682
g41
ag75
asa(dp683
g5
VTuesday, October 25, 2016
p684
sg7
(dp685
g39
(lp686
I1
aI4
asg121
(lp687
I2
assg13
(dp688
g39
I0
sg121
I0
ssg15
I93
sg16
(lp689
g39
ag121
asa(dp690
g5
VWednesday, October 26, 2016
p691
sg7
(dp692
g59
(lp693
I2
aI3
asg50
(lp694
I2
aI3
aI3
assg13
(dp695
g59
I0
sg50
I0
ssg15
I94
sg16
(lp696
g59
ag50
asa(dp697
g5
VWednesday, October 26, 2016
p698
sg7
(dp699
g57
(lp700
I2
aI2
aI2
aI3
aI3
asg77
(lp701
I1
aI1
assg13
(dp702
g57
I0
sg77
I0
ssg15
I95
sg16
(lp703
g57
ag77
asa(dp704
g5
VWednesday, October 26, 2016
p705
sg7
(dp706
g66
(lp707
I3
asg32
(lp708
I2
aI2
aI3
aI3
assg13
(dp709
g66
I0
sg32
I0
ssg15
I96
sg16
(lp710
g32
ag66
asa(dp711
g5
VWednesday, October 26, 2016
p712
sg7
(dp713
g128
(lp714
I3
asg121
(lp715
I1
aI2
aI2
aI2
aI2
aI2
assg13
(dp716
g128
I0
sg121
I0
ssg15
I97
sg16
(lp717
g121
ag128
asa(dp718
g5
VThursday, October 27, 2016
p719
sg7
(dp720
g48
(lp721
sg103
(lp722
I1
aI1
aI3
aI3
assg13
(dp723
g48
I0
sg103
I0
ssg15
I98
sg16
(lp724
g48
ag103
asa(dp725
g5
VThursday, October 27, 2016
p726
sg7
(dp727
g229
(lp728
I1
aI1
aI3
aI3
aI3
asg143
(lp729
I2
aI2
aI3
aI3
assg13
(dp730
g229
I0
sg143
I0
ssg15
I99
sg16
(lp731
g143
ag229
asa(dp732
g5
VThursday, October 27, 2016
p733
sg7
(dp734
g59
(lp735
I2
aI3
asg68
(lp736
I1
aI3
aI3
aI3
assg13
(dp737
g59
I0
sg68
I0
ssg15
I100
sg16
(lp738
g68
ag59
asa(dp739
g5
VThursday, October 27, 2016
p740
sg7
(dp741
g9
(lp742
I1
aI2
aI2
asg93
(lp743
I1
aI2
assg13
(dp744
g9
I0
sg93
I0
ssg15
I101
sg16
(lp745
g9
ag93
asa(dp746
g5
VThursday, October 27, 2016
p747
sg7
(dp748
g86
(lp749
I2
asg50
(lp750
I3
aI3
aI3
assg13
(dp751
g86
I0
sg50
I0
ssg15
I102
sg16
(lp752
g50
ag86
asa(dp753
g5
VThursday, October 27, 2016
p754
sg7
(dp755
g21
(lp756
I2
asg84
(lp757
I2
assg13
(dp758
g21
I1
sg84
I2
ssg15
I103
sg16
(lp759
g21
ag84
asa(dp760
g5
VThursday, October 27, 2016
p761
sg7
(dp762
g119
(lp763
I3
asg112
(lp764
I1
aI1
aI2
aI3
assg13
(dp765
g119
I0
sg112
I0
ssg15
I104
sg16
(lp766
g112
ag119
asa(dp767
g5
VThursday, October 27, 2016
p768
sg7
(dp769
g128
(lp770
I2
aI3
asg41
(lp771
I2
aI3
aI4
assg13
(dp772
g128
I0
sg41
I0
ssg15
I105
sg16
(lp773
g41
ag128
asa(dp774
g5
VThursday, October 27, 2016
p775
sg7
(dp776
g75
(lp777
I3
asg39
(lp778
I1
aI3
aI3
assg13
(dp779
g75
I0
sg39
I0
ssg15
I106
sg16
(lp780
g39
ag75
asa(dp781
g5
VFriday, October 28, 2016
p782
sg7
(dp783
g23
(lp784
I2
aI3
aI4
asg95
(lp785
I1
aI3
assg13
(dp786
g23
I0
sg95
I0
ssg15
I107
sg16
(lp787
g95
ag23
asa(dp788
g5
VFriday, October 28, 2016
p789
sg7
(dp790
g57
(lp791
I1
aI2
asg110
(lp792
I1
aI2
aI2
assg13
(dp793
g57
I0
sg110
I0
ssg15
I108
sg16
(lp794
g110
ag57
asa(dp795
g5
VFriday, October 28, 2016
p796
sg7
(dp797
g112
(lp798
I2
asg222
(lp799
ssg13
(dp800
g112
I0
sg222
I0
ssg15
I109
sg16
(lp801
g222
ag112
asa(dp802
g5
VFriday, October 28, 2016
p803
sg7
(dp804
g30
(lp805
I1
aI2
aI2
aI3
aI3
asg11
(lp806
I1
aI1
assg13
(dp807
g30
I0
sg11
I0
ssg15
I110
sg16
(lp808
g30
ag11
asa(dp809
g5
VFriday, October 28, 2016
p810
sg7
(dp811
g238
(lp812
sg32
(lp813
I2
aI3
assg13
(dp814
g238
I0
sg32
I0
ssg15
I111
sg16
(lp815
g238
ag32
asa(dp816
g5
VFriday, October 28, 2016
p817
sg7
(dp818
g75
(lp819
I1
aI1
aI1
aI1
asg121
(lp820
ssg13
(dp821
g75
I0
sg121
I0
ssg15
I112
sg16
(lp822
g121
ag75
asa(dp823
g5
VSaturday, October 29, 2016
p824
sg7
(dp825
g93
(lp826
sg48
(lp827
I1
aI2
aI3
assg13
(dp828
g93
I0
sg48
I0
ssg15
I113
sg16
(lp829
g48
ag93
asa(dp830
g5
VSaturday, October 29, 2016
p831
sg7
(dp832
g9
(lp833
I3
asg50
(lp834
I2
aI3
assg13
(dp835
g9
I0
sg50
I0
ssg15
I114
sg16
(lp836
g50
ag9
asa(dp837
g5
VSaturday, October 29, 2016
p838
sg7
(dp839
g77
(lp840
I2
asg84
(lp841
ssg13
(dp842
g77
I0
sg84
I0
ssg15
I115
sg16
(lp843
g84
ag77
asa(dp844
g5
VSaturday, October 29, 2016
p845
sg7
(dp846
g95
(lp847
I1
aI1
aI2
asg86
(lp848
I3
assg13
(dp849
g95
I0
sg86
I0
ssg15
I116
sg16
(lp850
g95
ag86
asa(dp851
g5
VSaturday, October 29, 2016
p852
sg7
(dp853
g143
(lp854
I1
aI1
aI2
aI2
asg68
(lp855
I1
aI1
aI1
aI2
aI3
assg13
(dp856
g143
I0
sg68
I0
ssg15
I117
sg16
(lp857
g143
ag68
asa(dp858
g5
VSaturday, October 29, 2016
p859
sg7
(dp860
g21
(lp861
I3
asg41
(lp862
ssg13
(dp863
g21
I0
sg41
I0
ssg15
I118
sg16
(lp864
g21
ag41
asa(dp865
g5
VSaturday, October 29, 2016
p866
sg7
(dp867
g119
(lp868
sg103
(lp869
I1
aI3
aI3
aI3
assg13
(dp870
g119
I0
sg103
I0
ssg15
I119
sg16
(lp871
g103
ag119
asa(dp872
g5
VSaturday, October 29, 2016
p873
sg7
(dp874
g229
(lp875
I1
aI3
asg222
(lp876
I2
aI3
aI3
assg13
(dp877
g229
I0
sg222
I0
ssg15
I120
sg16
(lp878
g229
ag222
asa(dp879
g5
VSaturday, October 29, 2016
p880
sg7
(dp881
g66
(lp882
I1
aI1
aI2
aI3
aI3
asg238
(lp883
I1
aI2
assg13
(dp884
g66
I0
sg238
I0
ssg15
I121
sg16
(lp885
g238
ag66
asa(dp886
g5
VSaturday, October 29, 2016
p887
sg7
(dp888
g128
(lp889
I2
asg39
(lp890
I1
aI2
aI2
aI3
assg13
(dp891
g128
I0
sg39
I0
ssg15
I122
sg16
(lp892
g39
ag128
asa(dp893
g5
VSunday, October 30, 2016
p894
sg7
(dp895
g112
(lp896
I3
asg48
(lp897
I1
aI1
aI2
assg13
(dp898
g112
I0
sg48
I0
ssg15
I123
sg16
(lp899
g112
ag48
asa(dp900
g5
VSunday, October 30, 2016
p901
sg7
(dp902
g93
(lp903
I1
aI1
aI1
aI2
aI2
asg84
(lp904
I2
aI3
assg13
(dp905
g93
I0
sg84
I0
ssg15
I124
sg16
(lp906
g84
ag93
asa(dp907
g5
VSunday, October 30, 2016
p908
sg7
(dp909
g110
(lp910
I2
aI2
aI2
asg143
(lp911
I1
aI2
aI2
aI3
assg13
(dp912
g110
I0
sg143
I0
ssg15
I125
sg16
(lp913
g110
ag143
asa(dp914
g5
VSunday, October 30, 2016
p915
sg7
(dp916
g9
(lp917
I3
asg59
(lp918
I1
aI1
aI3
aI3
aI3
assg13
(dp919
g9
I0
sg59
I0
ssg15
I126
sg16
(lp920
g59
ag9
asa(dp921
g5
VSunday, October 30, 2016
p922
sg7
(dp923
g57
(lp924
I2
aI2
aI2
aI2
aI3
aI3
asg86
(lp925
I3
assg13
(dp926
g57
I0
sg86
I0
ssg15
I127
sg16
(lp927
g57
ag86
asa(dp928
g5
VSunday, October 30, 2016
p929
sg7
(dp930
g23
(lp931
I1
aI2
aI3
asg41
(lp932
ssg13
(dp933
g23
I0
sg41
I0
ssg15
I128
sg16
(lp934
g23
ag41
asa(dp935
g5
VSunday, October 30, 2016
p936
sg7
(dp937
g11
(lp938
I2
aI3
asg32
(lp939
ssg13
(dp940
g11
I0
sg32
I0
ssg15
I129
sg16
(lp941
g32
ag11
asa(dp942
g5
VSunday, October 30, 2016
p943
sg7
(dp944
g30
(lp945
I1
asg66
(lp946
I1
aI1
aI3
assg13
(dp947
g30
I0
sg66
I0
ssg15
I130
sg16
(lp948
g30
ag66
asa(dp949
g5
VTuesday, November 1, 2016
p950
sg7
(dp951
g59
(lp952
I2
asg86
(lp953
I1
aI1
aI1
aI2
aI2
aI2
assg13
(dp954
g59
I0
sg86
I0
ssg15
I131
sg16
(lp955
g59
ag86
asa(dp956
g5
VTuesday, November 1, 2016
p957
sg7
(dp958
g57
(lp959
I1
aI1
aI2
aI2
aI2
asg21
(lp960
ssg13
(dp961
g57
I0
sg21
I0
ssg15
I132
sg16
(lp962
g57
ag21
asa(dp963
g5
VTuesday, November 1, 2016
p964
sg7
(dp965
g75
(lp966
I2
aI3
aI4
asg119
(lp967
I2
aI3
assg13
(dp968
g75
I0
sg119
I0
ssg15
I133
sg16
(lp969
g75
ag119
asa(dp970
g5
VTuesday, November 1, 2016
p971
sg7
(dp972
g9
(lp973
I1
aI2
aI4
asg32
(lp974
I1
aI3
assg13
(dp975
g9
I0
sg32
I0
ssg15
I134
sg16
(lp976
g9
ag32
asa(dp977
g5
VTuesday, November 1, 2016
p978
sg7
(dp979
g110
(lp980
I1
asg11
(lp981
I1
aI4
assg13
(dp982
g110
I0
sg11
I0
ssg15
I135
sg16
(lp983
g11
ag110
asa(dp984
g5
VTuesday, November 1, 2016
p985
sg7
(dp986
g93
(lp987
I3
asg77
(lp988
I1
aI2
assg13
(dp989
g93
I0
sg77
I0
ssg15
I136
sg16
(lp990
g93
ag77
asa(dp991
g5
VTuesday, November 1, 2016
p992
sg7
(dp993
g48
(lp994
I1
aI3
asg103
(lp995
I2
assg13
(dp996
g48
I0
sg103
I0
ssg15
I137
sg16
(lp997
g103
ag48
asa(dp998
g5
VTuesday, November 1, 2016
p999
sg7
(dp1000
g66
(lp1001
I1
aI2
aI3
asg112
(lp1002
I3
aI3
assg13
(dp1003
g66
I0
sg112
I0
ssg15
I138
sg16
(lp1004
g112
ag66
asa(dp1005
g5
VTuesday, November 1, 2016
p1006
sg7
(dp1007
g30
(lp1008
I2
asg23
(lp1009
I1
aI3
aI3
aI3
aI3
assg13
(dp1010
g30
I0
sg23
I0
ssg15
I139
sg16
(lp1011
g23
ag30
asa(dp1012
g5
VTuesday, November 1, 2016
p1013
sg7
(dp1014
g128
(lp1015
I1
aI1
aI2
aI3
aI3
asg222
(lp1016
I1
assg13
(dp1017
g128
I0
sg222
I0
ssg15
I140
sg16
(lp1018
g222
ag128
asa(dp1019
g5
VTuesday, November 1, 2016
p1020
sg7
(dp1021
g229
(lp1022
I2
aI2
aI2
asg39
(lp1023
I1
aI3
assg13
(dp1024
g229
I0
sg39
I0
ssg15
I141
sg16
(lp1025
g229
ag39
asa(dp1026
g5
VTuesday, November 1, 2016
p1027
sg7
(dp1028
g121
(lp1029
I1
aI2
aI2
aI2
asg41
(lp1030
ssg13
(dp1031
g121
I0
sg41
I0
ssg15
I142
sg16
(lp1032
g41
ag121
asa(dp1033
g5
VWednesday, November 2, 2016
p1034
sg7
(dp1035
g238
(lp1036
sg50
(lp1037
I2
aI2
aI3
assg13
(dp1038
g238
I0
sg50
I0
ssg15
I143
sg16
(lp1039
g50
ag238
asa(dp1040
g5
VWednesday, November 2, 2016
p1041
sg7
(dp1042
g143
(lp1043
I2
aI3
aI3
aI4
asg84
(lp1044
I1
aI1
aI3
assg13
(dp1045
g143
I0
sg84
I0
ssg15
I144
sg16
(lp1046
g143
ag84
asa(dp1047
g5
VWednesday, November 2, 2016
p1048
sg7
(dp1049
g68
(lp1050
I1
aI1
aI2
aI3
aI3
asg121
(lp1051
I1
assg13
(dp1052
g68
I0
sg121
I0
ssg15
I145
sg16
(lp1053
g121
ag68
asa(dp1054
g5
VThursday, November 3, 2016
p1055
sg7
(dp1056
g9
(lp1057
I1
aI2
asg48
(lp1058
I2
assg13
(dp1059
g9
I0
sg48
I0
ssg15
I146
sg16
(lp1060
g48
ag9
asa(dp1061
g5
VThursday, November 3, 2016
p1062
sg7
(dp1063
g143
(lp1064
I2
aI3
asg59
(lp1065
I2
aI3
assg13
(dp1066
g143
I1
sg59
I0
ssg15
I147
sg16
(lp1067
g59
ag143
asa(dp1068
g5
VThursday, November 3, 2016
p1069
sg7
(dp1070
g57
(lp1071
I1
aI2
aI3
aI3
aI3
asg32
(lp1072
I1
aI2
aI3
assg13
(dp1073
g57
I0
sg32
I0
ssg15
I148
sg16
(lp1074
g57
ag32
asa(dp1075
g5
VThursday, November 3, 2016
p1076
sg7
(dp1077
g66
(lp1078
I1
aI2
aI2
aI4
asg112
(lp1079
I3
aI3
aI3
assg13
(dp1080
g66
I0
sg112
I0
ssg15
I149
sg16
(lp1081
g66
ag112
asa(dp1082
g5
VThursday, November 3, 2016
p1083
sg7
(dp1084
g238
(lp1085
sg11
(lp1086
I2
assg13
(dp1087
g238
I0
sg11
I0
ssg15
I150
sg16
(lp1088
g11
ag238
asa(dp1089
g5
VThursday, November 3, 2016
p1090
sg7
(dp1091
g77
(lp1092
I1
aI1
aI2
asg86
(lp1093
I1
aI2
aI3
assg13
(dp1094
g77
I2
sg86
I1
ssg15
I151
sg16
(lp1095
g86
ag77
asa(dp1096
g5
VThursday, November 3, 2016
p1097
sg7
(dp1098
g93
(lp1099
I1
aI2
aI3
aI4
asg95
(lp1100
I2
aI3
aI3
assg13
(dp1101
g93
I0
sg95
I0
ssg15
I152
sg16
(lp1102
g93
ag95
asa(dp1103
g5
VThursday, November 3, 2016
p1104
sg7
(dp1105
g23
(lp1106
I1
aI1
aI3
aI3
asg222
(lp1107
ssg13
(dp1108
g23
I0
sg222
I0
ssg15
I153
sg16
(lp1109
g23
ag222
asa(dp1110
g5
VThursday, November 3, 2016
p1111
sg7
(dp1112
g119
(lp1113
I2
aI2
aI3
aI3
aI3
aI3
asg21
(lp1114
I2
aI3
assg13
(dp1115
g119
I0
sg21
I0
ssg15
I154
sg16
(lp1116
g119
ag21
asa(dp1117
g5
VThursday, November 3, 2016
p1118
sg7
(dp1119
g128
(lp1120
I1
aI2
asg229
(lp1121
I1
aI3
assg13
(dp1122
g128
I0
sg229
I2
ssg15
I155
sg16
(lp1123
g229
ag128
asa(dp1124
g5
VThursday, November 3, 2016
p1125
sg7
(dp1126
g68
(lp1127
I1
aI3
asg41
(lp1128
I2
aI3
aI4
assg13
(dp1129
g68
I0
sg41
I0
ssg15
I156
sg16
(lp1130
g41
ag68
asa(dp1131
g5
VThursday, November 3, 2016
p1132
sg7
(dp1133
g30
(lp1134
I2
aI2
aI3
asg39
(lp1135
I3
aI3
assg13
(dp1136
g30
I0
sg39
I0
ssg15
I157
sg16
(lp1137
g39
ag30
asa(dp1138
g5
VFriday, November 4, 2016
p1139
sg7
(dp1140
g75
(lp1141
I1
aI1
aI1
aI2
aI2
aI2
aI2
aI2
aI3
aI3
asg50
(lp1142
ssg13
(dp1143
g75
I0
sg50
I0
ssg15
I158
sg16
(lp1144
g75
ag50
asa(dp1145
g5
VFriday, November 4, 2016
p1146
sg7
(dp1147
g112
(lp1148
I1
aI3
aI3
aI3
aI3
asg84
(lp1149
I1
aI2
aI3
assg13
(dp1150
g112
I0
sg84
I0
ssg15
I159
sg16
(lp1151
g84
ag112
asa(dp1152
g5
VFriday, November 4, 2016
p1153
sg7
(dp1154
g229
(lp1155
I2
asg121
(lp1156
I1
aI1
aI1
aI2
aI3
assg13
(dp1157
g229
I0
sg121
I0
ssg15
I160
sg16
(lp1158
g121
ag229
asa(dp1159
g5
VSaturday, November 5, 2016
p1160
sg7
(dp1161
g222
(lp1162
I3
asg103
(lp1163
ssg13
(dp1164
g222
I0
sg103
I0
ssg15
I161
sg16
(lp1165
g222
ag103
asa(dp1166
g5
VSaturday, November 5, 2016
p1167
sg7
(dp1168
g57
(lp1169
I1
aI1
aI2
aI3
aI3
asg77
(lp1170
I1
aI3
assg13
(dp1171
g57
I0
sg77
I0
ssg15
I162
sg16
(lp1172
g77
ag57
asa(dp1173
g5
VSaturday, November 5, 2016
p1174
sg7
(dp1175
g9
(lp1176
I1
aI1
aI2
aI3
aI3
aI3
asg238
(lp1177
I1
aI2
aI3
assg13
(dp1178
g9
I0
sg238
I0
ssg15
I163
sg16
(lp1179
g9
ag238
asa(dp1180
g5
VSaturday, November 5, 2016
p1181
sg7
(dp1182
g143
(lp1183
I1
aI1
aI3
aI3
asg50
(lp1184
I1
aI1
aI2
aI3
aI3
assg13
(dp1185
g143
I0
sg50
I0
ssg15
I164
sg16
(lp1186
g50
ag143
asa(dp1187
g5
VSaturday, November 5, 2016
p1188
sg7
(dp1189
g48
(lp1190
I3
aI3
asg11
(lp1191
I2
assg13
(dp1192
g48
I0
sg11
I0
ssg15
I165
sg16
(lp1193
g11
ag48
asa(dp1194
g5
VSaturday, November 5, 2016
p1195
sg7
(dp1196
g95
(lp1197
I1
asg86
(lp1198
I2
aI2
aI3
aI3
assg13
(dp1199
g95
I0
sg86
I0
ssg15
I166
sg16
(lp1200
g86
ag95
asa(dp1201
S'date'
p1202
S'Saturday, November 5, 2016'
p1203
sS'score'
p1204
(dp1205
S'NYI'
p1206
(lp1207
I1
aI1
aI2
asS'EDM'
p1208
(lp1209
I1
aI1
aI2
assS'teams'
p1210
(lp1211
g1208
ag1206
asS'number'
p1212
I167
sS'shootout'
p1213
(dp1214
g1206
I0
sg1208
I1
ssa(dp1215
g5
VSaturday, November 5, 2016
p1216
sg7
(dp1217
g93
(lp1218
I1
aI3
asg66
(lp1219
I2
aI3
aI3
aI3
assg13
(dp1220
g93
I0
sg66
I0
ssg15
I168
sg16
(lp1221
g66
ag93
asa(dp1222
g5
VSaturday, November 5, 2016
p1223
sg7
(dp1224
g21
(lp1225
I3
aI4
asg75
(lp1226
I2
assg13
(dp1227
g21
I0
sg75
I0
ssg15
I169
sg16
(lp1228
g21
ag75
asa(dp1229
g5
VSaturday, November 5, 2016
p1230
sg7
(dp1231
g128
(lp1232
I1
aI2
asg110
(lp1233
I2
aI3
assg13
(dp1234
g128
I0
sg110
I1
ssg15
I170
sg16
(lp1235
g128
ag110
asa(dp1236
g5
VSaturday, November 5, 2016
p1237
sg7
(dp1238
g119
(lp1239
I1
aI1
asg23
(lp1240
I1
aI2
aI2
assg13
(dp1241
g119
I0
sg23
I0
ssg15
I171
sg16
(lp1242
g119
ag23
asa(dp1243
g5
VSaturday, November 5, 2016
p1244
sg7
(dp1245
g30
(lp1246
sg41
(lp1247
I1
aI1
aI2
aI2
aI3
assg13
(dp1248
g30
I0
sg41
I0
ssg15
I172
sg16
(lp1249
g41
ag30
asa(dp1250
g5
VSaturday, November 5, 2016
p1251
sg7
(dp1252
g39
(lp1253
sg68
(lp1254
I1
aI1
aI2
aI2
aI2
assg13
(dp1255
g39
I0
sg68
I0
ssg15
I173
sg16
(lp1256
g39
ag68
asa(dp1257
g5
VSunday, November 6, 2016
p1258
sg7
(dp1259
g84
(lp1260
I1
asg32
(lp1261
I1
aI2
assg13
(dp1262
g84
I0
sg32
I0
ssg15
I174
sg16
(lp1263
g84
ag32
asa(dp1264
g5
VSunday, November 6, 2016
p1265
sg7
(dp1266
g21
(lp1267
I1
aI1
aI2
aI2
aI2
asg222
(lp1268
I2
assg13
(dp1269
g21
I0
sg222
I0
ssg15
I175
sg16
(lp1270
g21
ag222
asa(dp1271
g5
VSunday, November 6, 2016
p1272
sg7
(dp1273
g110
(lp1274
I3
asg95
(lp1275
I2
aI2
aI3
aI3
assg13
(dp1276
g110
I0
sg95
I0
ssg15
I176
sg16
(lp1277
g110
ag95
asa(dp1278
g5
VSunday, November 6, 2016
p1279
sg7
(dp1280
g57
(lp1281
I1
aI2
aI2
aI2
aI2
asg112
(lp1282
I1
aI2
assg13
(dp1283
g57
I0
sg112
I0
ssg15
I177
sg16
(lp1284
g57
ag112
asa(dp1285
g5
VSunday, November 6, 2016
p1286
sg7
(dp1287
g119
(lp1288
I1
aI2
aI3
asg23
(lp1289
I2
aI3
aI3
aI4
assg13
(dp1290
g119
I0
sg23
I0
ssg15
I178
sg16
(lp1291
g23
ag119
asa(dp1292
g5
VSunday, November 6, 2016
p1293
sg7
(dp1294
g30
(lp1295
I1
asg121
(lp1296
I1
aI2
aI2
aI3
assg13
(dp1297
g30
I0
sg121
I0
ssg15
I179
sg16
(lp1298
g121
ag30
asa(dp1299
g5
VMonday, November 7, 2016
p1300
sg7
(dp1301
g77
(lp1302
I2
aI2
aI2
aI3
asg48
(lp1303
ssg13
(dp1304
g77
I0
sg48
I0
ssg15
I180
sg16
(lp1305
g77
ag48
asa(dp1306
g5
VMonday, November 7, 2016
p1307
sg7
(dp1308
g59
(lp1309
I1
aI2
aI3
aI3
asg238
(lp1310
I1
aI2
assg13
(dp1311
g59
I0
sg238
I0
ssg15
I181
sg16
(lp1312
g59
ag238
asa(dp1313
g5
VMonday, November 7, 2016
p1314
sg7
(dp1315
g93
(lp1316
I1
aI3
aI3
asg86
(lp1317
I3
assg13
(dp1318
g93
I0
sg86
I0
ssg15
I182
sg16
(lp1319
g93
ag86
asa(dp1320
g5
VTuesday, November 8, 2016
p1321
sg7
(dp1322
g110
(lp1323
I2
aI2
asg95
(lp1324
I1
aI3
assg13
(dp1325
g110
I0
sg95
I2
ssg15
I183
sg16
(lp1326
g95
ag110
asa(dp1327
g5
VTuesday, November 8, 2016
p1328
sg7
(dp1329
g57
(lp1330
I2
aI3
aI3
asg238
(lp1331
I2
aI3
aI3
aI3
aI3
assg13
(dp1332
g57
I0
sg238
I0
ssg15
I184
sg16
(lp1333
g57
ag238
asa(dp1334
g5
VTuesday, November 8, 2016
p1335
sg7
(dp1336
g143
(lp1337
I1
aI3
asg84
(lp1338
I1
aI3
assg13
(dp1339
g143
I0
sg84
I1
ssg15
I185
sg16
(lp1340
g143
ag84
asa(dp1341
g5
VTuesday, November 8, 2016
p1342
sg7
(dp1343
g68
(lp1344
I1
aI2
aI3
aI3
asg32
(lp1345
I1
aI1
aI2
assg13
(dp1346
g68
I0
sg32
I0
ssg15
I186
sg16
(lp1347
g68
ag32
asa(dp1348
g5
VTuesday, November 8, 2016
p1349
sg7
(dp1350
g66
(lp1351
sg39
(lp1352
I2
aI2
aI3
assg13
(dp1353
g66
I0
sg39
I0
ssg15
I187
sg16
(lp1354
g66
ag39
asa(dp1355
g5
VTuesday, November 8, 2016
p1356
sg7
(dp1357
g9
(lp1358
sg41
(lp1359
I1
aI2
aI2
aI2
aI2
aI3
aI3
assg13
(dp1360
g9
I0
sg41
I0
ssg15
I188
sg16
(lp1361
g9
ag41
asa(dp1362
g5
VTuesday, November 8, 2016
p1363
sg7
(dp1364
g77
(lp1365
I2
aI3
asg50
(lp1366
I2
aI2
aI3
assg13
(dp1367
g77
I0
sg50
I0
ssg15
I189
sg16
(lp1368
g50
ag77
asa(dp1369
g5
VTuesday, November 8, 2016
p1370
sg7
(dp1371
g128
(lp1372
I2
aI2
aI3
asg11
(lp1373
I3
assg13
(dp1374
g128
I0
sg11
I0
ssg15
I190
sg16
(lp1375
g128
ag11
asa(dp1376
g5
VTuesday, November 8, 2016
p1377
sg7
(dp1378
g119
(lp1379
I2
aI3
asg112
(lp1380
I1
aI1
aI2
aI2
aI2
aI2
aI3
aI3
assg13
(dp1381
g119
I0
sg112
I0
ssg15
I191
sg16
(lp1382
g112
ag119
asa(dp1383
g5
VTuesday, November 8, 2016
p1384
sg7
(dp1385
g229
(lp1386
I1
aI2
aI2
aI3
asg222
(lp1387
I2
aI2
assg13
(dp1388
g229
I0
sg222
I0
ssg15
I192
sg16
(lp1389
g222
ag229
asa(dp1390
g5
VWednesday, November 9, 2016
p1391
sg7
(dp1392
g75
(lp1393
I1
aI1
aI4
asg121
(lp1394
I2
aI3
assg13
(dp1395
g75
I0
sg121
I0
ssg15
I193
sg16
(lp1396
g75
ag121
asa(dp1397
g5
VWednesday, November 9, 2016
p1398
sg7
(dp1399
g11
(lp1400
I2
asg48
(lp1401
I1
assg13
(dp1402
g11
I2
sg48
I1
ssg15
I194
sg16
(lp1403
g48
ag11
asa(dp1404
g5
VWednesday, November 9, 2016
p1405
sg7
(dp1406
g21
(lp1407
I3
asg23
(lp1408
I2
aI4
assg13
(dp1409
g21
I0
sg23
I0
ssg15
I195
sg16
(lp1410
g21
ag23
asa(dp1411
g5
VThursday, November 10, 2016
p1412
sg7
(dp1413
g75
(lp1414
I1
aI3
asg77
(lp1415
I1
aI1
aI1
aI1
aI2
assg13
(dp1416
g75
I0
sg77
I0
ssg15
I196
sg16
(lp1417
g77
ag75
asa(dp1418
g5
VThursday, November 10, 2016
p1419
sg7
(dp1420
g68
(lp1421
I1
aI2
asg103
(lp1422
I1
aI2
aI3
aI3
assg13
(dp1423
g68
I0
sg103
I0
ssg15
I197
sg16
(lp1424
g68
ag103
asa(dp1425
g5
VThursday, November 10, 2016
p1426
sg7
(dp1427
g110
(lp1428
I2
aI3
asg121
(lp1429
I2
aI2
aI2
aI3
assg13
(dp1430
g110
I0
sg121
I0
ssg15
I198
sg16
(lp1431
g110
ag121
asa(dp1432
g5
VThursday, November 10, 2016
p1433
sg7
(dp1434
g50
(lp1435
I1
aI1
aI2
aI3
asg41
(lp1436
I3
assg13
(dp1437
g50
I0
sg41
I0
ssg15
I199
sg16
(lp1438
g50
ag41
asa(dp1439
g5
VThursday, November 10, 2016
p1440
sg7
(dp1441
g238
(lp1442
I3
asg84
(lp1443
I1
aI1
aI3
assg13
(dp1444
g238
I0
sg84
I0
ssg15
I200
sg16
(lp1445
g84
ag238
asa(dp1446
g5
VThursday, November 10, 2016
p1447
sg7
(dp1448
g59
(lp1449
I2
asg86
(lp1450
I1
aI1
aI2
aI3
assg13
(dp1451
g59
I0
sg86
I0
ssg15
I201
sg16
(lp1452
g86
ag59
asa(dp1453
g5
VThursday, November 10, 2016
p1454
sg7
(dp1455
g93
(lp1456
I1
aI1
asg39
(lp1457
I1
aI2
aI3
aI3
assg13
(dp1458
g93
I0
sg39
I0
ssg15
I202
sg16
(lp1459
g93
ag39
asa(dp1460
g5
VThursday, November 10, 2016
p1461
sg7
(dp1462
g128
(lp1463
I2
aI3
aI3
asg21
(lp1464
I1
assg13
(dp1465
g128
I0
sg21
I0
ssg15
I203
sg16
(lp1466
g128
ag21
asa(dp1467
g5
VThursday, November 10, 2016
p1468
sg7
(dp1469
g30
(lp1470
I2
aI2
asg119
(lp1471
I1
aI1
aI3
aI3
assg13
(dp1472
g30
I0
sg119
I0
ssg15
I204
sg16
(lp1473
g30
ag119
asa(dp1474
g5
VThursday, November 10, 2016
p1475
sg7
(dp1476
g229
(lp1477
I1
aI3
asg112
(lp1478
I1
aI2
aI3
assg13
(dp1479
g229
I0
sg112
I0
ssg15
I205
sg16
(lp1480
g229
ag112
asa(dp1481
g5
VFriday, November 11, 2016
p1482
sg7
(dp1483
g95
(lp1484
I3
aI4
asg48
(lp1485
I1
assg13
(dp1486
g95
I0
sg48
I0
ssg15
I206
sg16
(lp1487
g48
ag95
asa(dp1488
g5
VFriday, November 11, 2016
p1489
sg7
(dp1490
g9
(lp1491
I1
aI1
aI3
aI3
aI3
aI3
asg143
(lp1492
I1
aI1
aI2
assg13
(dp1493
g9
I0
sg143
I0
ssg15
I207
sg16
(lp1494
g9
ag143
asa(dp1495
g5
VFriday, November 11, 2016
p1496
sg7
(dp1497
g11
(lp1498
I3
aI3
asg41
(lp1499
I2
assg13
(dp1500
g11
I0
sg41
I0
ssg15
I208
sg16
(lp1501
g11
ag41
asa(dp1502
g5
VFriday, November 11, 2016
p1503
sg7
(dp1504
g23
(lp1505
I1
aI3
asg66
(lp1506
I1
aI1
aI4
assg13
(dp1507
g23
I0
sg66
I0
ssg15
I209
sg16
(lp1508
g23
ag66
asa(dp1509
g5
VFriday, November 11, 2016
p1510
sg7
(dp1511
g112
(lp1512
I2
aI2
asg222
(lp1513
I2
aI2
aI4
assg13
(dp1514
g112
I0
sg222
I0
ssg15
I210
sg16
(lp1515
g222
ag112
asa(dp1516
g5
VFriday, November 11, 2016
p1517
sg7
(dp1518
g119
(lp1519
I1
aI1
aI2
asg32
(lp1520
I1
aI1
assg13
(dp1521
g119
I0
sg32
I0
ssg15
I211
sg16
(lp1522
g32
ag119
asa(dp1523
S'date'
p1524
VSaturday, November 12, 2016
p1525
sS'shootout'
p1526
(dp1527
S'DET'
p1528
I0
sS'MTL'
p1529
I0
ssS'number'
p1530
I212
sS'score'
p1531
(dp1532
g1528
(lp1533
sg1529
(lp1534
I1
aI1
aI1
aI2
aI2
assS'teams'
p1535
(lp1536
g1529
ag1528
asa(dp1537
g1524
VSaturday, November 12, 2016
p1538
sg1526
(dp1539
S'SJ'
p1540
I0
sS'TB'
p1541
I0
ssg1530
I213
sg1531
(dp1542
g1540
(lp1543
I1
aI1
aI2
asg1541
(lp1544
I3
assg1535
(lp1545
g1541
ag1540
asa(dp1546
g1524
VSaturday, November 12, 2016
p1547
sg1526
(dp1548
S'FLA'
p1549
I0
sS'NYI'
p1550
I0
ssg1530
I214
sg1531
(dp1551
g1549
(lp1552
I3
aI3
aI4
asg1550
(lp1553
I1
aI2
assg1535
(lp1554
g1549
ag1550
asa(dp1555
g1524
VSaturday, November 12, 2016
p1556
sg1526
(dp1557
S'NJ'
p1558
I0
sS'BUF'
p1559
I0
ssg1530
I215
sg1531
(dp1560
g1558
(lp1561
I1
aI2
aI2
aI3
asg1559
(lp1562
I2
aI3
assg1535
(lp1563
g1558
ag1559
asa(dp1564
g1524
VSaturday, November 12, 2016
p1565
sg1526
(dp1566
S'PHI'
p1567
I0
sS'MIN'
p1568
I0
ssg1530
I216
sg1531
(dp1569
g1567
(lp1570
I1
aI2
aI3
asg1568
(lp1571
I1
aI2
assg1535
(lp1572
g1567
ag1568
asa(dp1573
g1524
VSaturday, November 12, 2016
p1574
sg1526
(dp1575
S'TOR'
p1576
I0
sS'PIT'
p1577
I0
ssg1530
I217
sg1531
(dp1578
g1576
(lp1579
I1
asg1577
(lp1580
I2
aI2
aI3
aI3
assg1535
(lp1581
g1577
ag1576
asa(dp1582
g1524
VSaturday, November 12, 2016
p1583
sg1526
(dp1584
S'CAR'
p1585
I0
sS'WSH'
p1586
I0
ssg1530
I218
sg1531
(dp1587
g1585
(lp1588
I1
aI1
aI2
aI2
aI3
asg1586
(lp1589
I1
assg1535
(lp1590
g1585
ag1586
asa(dp1591
g1524
VSaturday, November 12, 2016
p1592
sg1526
(dp1593
S'CBJ'
p1594
I0
sS'STL'
p1595
I0
ssg1530
I219
sg1531
(dp1596
g1594
(lp1597
I1
aI1
aI1
aI2
aI2
aI2
aI2
aI3
asg1595
(lp1598
I1
aI2
aI3
aI3
assg1535
(lp1599
g1594
ag1595
asa(dp1600
g1524
VSaturday, November 12, 2016
p1601
sg1526
(dp1602
S'NSH'
p1603
I0
sS'ANA'
p1604
I0
ssg1530
I220
sg1531
(dp1605
g1603
(lp1606
I1
aI2
aI2
aI2
aI3
asg1604
(lp1607
ssg1535
(lp1608
g1603
ag1604
asa(dp1609
g1524
VSaturday, November 12, 2016
p1610
sg1526
(dp1611
S'ARI'
p1612
I0
sS'BOS'
p1613
I0
ssg1530
I221
sg1531
(dp1614
g1612
(lp1615
I3
asg1613
(lp1616
I2
aI2
assg1535
(lp1617
g1612
ag1613
asa(dp1618
S'date'
p1619
S'Saturday, November 12, 2016'
p1620
sS'shootout'
p1621
(dp1622
S'NYR'
p1623
I0
sS'CGY'
p1624
I0
ssS'teams'
p1625
(lp1626
g1623
ag1624
asS'score'
p1627
(dp1628
g1623
(lp1629
I1
aI1
aI2
aI2
asg1624
(lp1630
I3
assS'number'
p1631
I222
sa(dp1632
g1524
VSunday, November 13, 2016
p1633
sg1526
(dp1634
S'WPG'
p1635
I2
sS'LA'
p1636
I1
ssg1530
I223
sg1531
(dp1637
g1635
(lp1638
I1
aI1
asg1636
(lp1639
I1
aI3
assg1535
(lp1640
g1635
ag1636
asa(dp1641
g1524
VSunday, November 13, 2016
p1642
sg1526
(dp1643
S'DAL'
p1644
I0
sS'VAN'
p1645
I0
ssg1530
I224
sg1531
(dp1646
g1644
(lp1647
I1
aI1
aI2
aI3
asg1645
(lp1648
I1
aI3
aI3
aI3
aI4
assg1535
(lp1649
g1645
ag1644
asa(dp1650
g1524
VSunday, November 13, 2016
p1651
sg1526
(dp1652
S'OTT'
p1653
I0
sg1568
I0
ssg1530
I225
sg1531
(dp1654
g1653
(lp1655
I3
asg1568
(lp1656
I1
aI4
assg1535
(lp1657
g1653
ag1568
asa(dp1658
g1524
VSunday, November 13, 2016
p1659
sg1526
(dp1660
S'CHI'
p1661
I0
sg1529
I0
ssg1530
I226
sg1531
(dp1662
g1661
(lp1663
I1
aI2
aI2
asg1529
(lp1664
I2
aI2
assg1535
(lp1665
g1661
ag1529
asa(dp1666
g1524
VSunday, November 13, 2016
p1667
sg1526
(dp1668
g1613
I0
sS'COL'
p1669
I0
ssg1530
I227
sg1531
(dp1670
g1613
(lp1671
I1
aI3
asg1669
(lp1672
ssg1535
(lp1673
g1669
ag1613
asa(dp1674
g1524
VSunday, November 13, 2016
p1675
sg1526
(dp1676
S'NYR'
p1677
I0
sS'EDM'
p1678
I0
ssg1530
I228
sg1531
(dp1679
g1677
(lp1680
I1
aI1
aI2
asg1678
(lp1681
I1
assg1535
(lp1682
g1678
ag1677
asas.